
ucosii.om:     file format elf32-tradbigmips


Disassembly of section .vectors:

00000000 <_reset>:
   0:	3c1c0000 	lui	gp,0x0
   4:	3c1d0002 	lui	sp,0x2
   8:	27bd9b70 	addiu	sp,sp,-25744
   c:	3c1a0000 	lui	k0,0x0
  10:	275a78c0 	addiu	k0,k0,30912
  14:	03400008 	jr	k0
  18:	00000000 	nop
  1c:	00000000 	nop
  20:	3c1a0000 	lui	k0,0x0
  24:	275a7514 	addiu	k0,k0,29972
  28:	03400008 	jr	k0
  2c:	00000000 	nop
	...
  40:	3c1a0000 	lui	k0,0x0
  44:	275a76c4 	addiu	k0,k0,30404
  48:	03400008 	jr	k0
  4c:	00000000 	nop
  50:	00000000 	nop

Disassembly of section .text:

00000080 <place_food>:
      80:	3c0b41c6 	lui	t3,0x41c6
      84:	8f887b08 	lw	t0,31496(gp)
      88:	8f877b20 	lw	a3,31520(gp)
      8c:	240a0100 	li	t2,256
      90:	256b4e6d 	addiu	t3,t3,20077
      94:	3c0d0001 	lui	t5,0x1
      98:	3c0c0000 	lui	t4,0x0
      9c:	710b3002 	mul	a2,t0,t3
      a0:	24c63039 	addiu	a2,a2,12345
      a4:	70cb4002 	mul	t0,a2,t3
      a8:	00063402 	srl	a2,a2,0x10
      ac:	25083039 	addiu	t0,t0,12345
      b0:	00084c02 	srl	t1,t0,0x10
      b4:	30c6000f 	andi	a2,a2,0xf
      b8:	18e00011 	blez	a3,100 <STK_CTX_SIZE+0x74>
      bc:	3129000f 	andi	t1,t1,0xf
      c0:	25a38008 	addiu	v1,t5,-32760
      c4:	25847c08 	addiu	a0,t4,31752
      c8:	10000004 	b	dc <STK_CTX_SIZE+0x50>
      cc:	00001025 	move	v0,zero
      d0:	24630004 	addiu	v1,v1,4
      d4:	1047000a 	beq	v0,a3,100 <STK_CTX_SIZE+0x74>
      d8:	24840004 	addiu	a0,a0,4
      dc:	8c650000 	lw	a1,0(v1)
      e0:	14a6fffb 	bne	a1,a2,d0 <STK_CTX_SIZE+0x44>
      e4:	24420001 	addiu	v0,v0,1
      e8:	8c850000 	lw	a1,0(a0)
      ec:	14a9fff9 	bne	a1,t1,d4 <STK_CTX_SIZE+0x48>
      f0:	24630004 	addiu	v1,v1,4
      f4:	254affff 	addiu	t2,t2,-1
      f8:	1540ffe8 	bnez	t2,9c <STK_CTX_SIZE+0x10>
      fc:	2463fffc 	addiu	v1,v1,-4
     100:	af867b18 	sw	a2,31512(gp)
     104:	af887b08 	sw	t0,31496(gp)
     108:	03e00008 	jr	ra
     10c:	af897b14 	sw	t1,31508(gp)

00000110 <send_frame>:
     110:	8f827b10 	lw	v0,31504(gp)
     114:	3c032000 	lui	v1,0x2000
     118:	00021400 	sll	v0,v0,0x10
     11c:	27bdffd0 	addiu	sp,sp,-48
     120:	ac620004 	sw	v0,4(v1)
     124:	8f847b18 	lw	a0,31512(gp)
     128:	8f887b14 	lw	t0,31508(gp)
     12c:	3c050000 	lui	a1,0x0
     130:	3108000f 	andi	t0,t0,0xf
     134:	3c020001 	lui	v0,0x1
     138:	00042100 	sll	a0,a0,0x4
     13c:	00882025 	or	a0,a0,t0
     140:	8c428008 	lw	v0,-32760(v0)
     144:	2408ffaa 	li	t0,-86
     148:	8ca37c08 	lw	v1,31752(a1)
     14c:	8f897b10 	lw	t1,31504(gp)
     150:	a3a80000 	sb	t0,0(sp)
     154:	24080055 	li	t0,85
     158:	00023900 	sll	a3,v0,0x4
     15c:	306b000f 	andi	t3,v1,0xf
     160:	8f867b20 	lw	a2,31520(gp)
     164:	a3a80001 	sb	t0,1(sp)
     168:	8f887b0c 	lw	t0,31500(gp)
     16c:	00095203 	sra	t2,t1,0x8
     170:	00eb3825 	or	a3,a3,t3
     174:	a3a90003 	sb	t1,3(sp)
     178:	a3a40005 	sb	a0,5(sp)
     17c:	a3a80002 	sb	t0,2(sp)
     180:	a3aa0004 	sb	t2,4(sp)
     184:	a3a70006 	sb	a3,6(sp)
     188:	a3a60007 	sb	a2,7(sp)
     18c:	27a40008 	addiu	a0,sp,8
     190:	27a90028 	addiu	t1,sp,40
     194:	a0800000 	sb	zero,0(a0)
     198:	24840001 	addiu	a0,a0,1
     19c:	1524fffd 	bne	t1,a0,194 <send_frame+0x84>
     1a0:	00000000 	nop
     1a4:	18c00019 	blez	a2,20c <send_frame+0xfc>
     1a8:	3c040000 	lui	a0,0x0
     1ac:	00063880 	sll	a3,a2,0x2
     1b0:	24a67c08 	addiu	a2,a1,31752
     1b4:	3c050001 	lui	a1,0x1
     1b8:	24847c0c 	addiu	a0,a0,31756
     1bc:	24a5800c 	addiu	a1,a1,-32756
     1c0:	00c73821 	addu	a3,a2,a3
     1c4:	10000005 	b	1dc <send_frame+0xcc>
     1c8:	24080001 	li	t0,1
     1cc:	8c830000 	lw	v1,0(a0)
     1d0:	8ca20000 	lw	v0,0(a1)
     1d4:	24840004 	addiu	a0,a0,4
     1d8:	24a50004 	addiu	a1,a1,4
     1dc:	00031900 	sll	v1,v1,0x4
     1e0:	00621021 	addu	v0,v1,v0
     1e4:	000218c3 	sra	v1,v0,0x3
     1e8:	24630008 	addiu	v1,v1,8
     1ec:	03a31821 	addu	v1,sp,v1
     1f0:	00021027 	nor	v0,zero,v0
     1f4:	90660000 	lbu	a2,0(v1)
     1f8:	30420007 	andi	v0,v0,0x7
     1fc:	00481004 	sllv	v0,t0,v0
     200:	00461025 	or	v0,v0,a2
     204:	14e4fff1 	bne	a3,a0,1cc <send_frame+0xbc>
     208:	a0620000 	sb	v0,0(v1)
     20c:	27a20002 	addiu	v0,sp,2
     210:	00001825 	move	v1,zero
     214:	90440000 	lbu	a0,0(v0)
     218:	24420001 	addiu	v0,v0,1
     21c:	1522fffd 	bne	t1,v0,214 <send_frame+0x104>
     220:	00641826 	xor	v1,v1,a0
     224:	a3a30028 	sb	v1,40(sp)
     228:	03a03025 	move	a2,sp
     22c:	27a80029 	addiu	t0,sp,41
     230:	3c051000 	lui	a1,0x1000
     234:	24040060 	li	a0,96
     238:	90c70000 	lbu	a3,0(a2)
     23c:	3c031000 	lui	v1,0x1000
     240:	90620005 	lbu	v0,5(v1)
     244:	30420020 	andi	v0,v0,0x20
     248:	1040fffd 	beqz	v0,240 <send_frame+0x130>
     24c:	00000000 	nop
     250:	a0670000 	sb	a3,0(v1)
     254:	90a20005 	lbu	v0,5(a1)
     258:	30420060 	andi	v0,v0,0x60
     25c:	1444fffd 	bne	v0,a0,254 <send_frame+0x144>
     260:	00000000 	nop
     264:	24c60001 	addiu	a2,a2,1
     268:	1506fff3 	bne	t0,a2,238 <send_frame+0x128>
     26c:	00000000 	nop
     270:	03e00008 	jr	ra
     274:	27bd0030 	addiu	sp,sp,48

00000278 <snake_init>:
     278:	24020008 	li	v0,8
     27c:	3c060000 	lui	a2,0x0
     280:	3c070001 	lui	a3,0x1
     284:	27bdffe8 	addiu	sp,sp,-24
     288:	24c47c08 	addiu	a0,a2,31752
     28c:	24e58008 	addiu	a1,a3,-32760
     290:	acc27c08 	sw	v0,31752(a2)
     294:	24060007 	li	a2,7
     298:	24030003 	li	v1,3
     29c:	afbf0014 	sw	ra,20(sp)
     2a0:	ace28008 	sw	v0,-32760(a3)
     2a4:	aca60004 	sw	a2,4(a1)
     2a8:	ac820004 	sw	v0,4(a0)
     2ac:	24060006 	li	a2,6
     2b0:	ac820008 	sw	v0,8(a0)
     2b4:	24020001 	li	v0,1
     2b8:	aca60008 	sw	a2,8(a1)
     2bc:	af837b20 	sw	v1,31520(gp)
     2c0:	af827b1c 	sw	v0,31516(gp)
     2c4:	af807b10 	sw	zero,31504(gp)
     2c8:	0c001483 	jal	520c <OSTimeGet>
     2cc:	af837b0c 	sw	v1,31500(gp)
     2d0:	14400003 	bnez	v0,2e0 <snake_init+0x68>
     2d4:	8fbf0014 	lw	ra,20(sp)
     2d8:	3c021234 	lui	v0,0x1234
     2dc:	24425678 	addiu	v0,v0,22136
     2e0:	27bd0018 	addiu	sp,sp,24
     2e4:	08000020 	j	80 <place_food>
     2e8:	af827b08 	sw	v0,31496(gp)

000002ec <TaskStart>:
     2ec:	27bdffc8 	addiu	sp,sp,-56
     2f0:	00001025 	move	v0,zero
     2f4:	afbf0034 	sw	ra,52(sp)
     2f8:	afb70030 	sw	s7,48(sp)
     2fc:	afb6002c 	sw	s6,44(sp)
     300:	afb50028 	sw	s5,40(sp)
     304:	afb40024 	sw	s4,36(sp)
     308:	afb30020 	sw	s3,32(sp)
     30c:	afb2001c 	sw	s2,28(sp)
     310:	afb10018 	sw	s1,24(sp)
     314:	afb00014 	sw	s0,20(sp)
     318:	40824800 	mtc0	v0,c0_count
     31c:	3c02000f 	lui	v0,0xf
     320:	24424240 	addiu	v0,v0,16960
     324:	40825800 	mtc0	v0,c0_compare
     328:	3c021000 	lui	v0,0x1000
     32c:	24420401 	addiu	v0,v0,1025
     330:	40826000 	mtc0	v0,c0_status
     334:	0c00009e 	jal	278 <snake_init>
     338:	3c163fff 	lui	s6,0x3fff
     33c:	8f827b0c 	lw	v0,31500(gp)
     340:	3c110001 	lui	s1,0x1
     344:	3c100000 	lui	s0,0x0
     348:	36d6ffff 	ori	s6,s6,0xffff
     34c:	3c170001 	lui	s7,0x1
     350:	26338008 	addiu	s3,s1,-32760
     354:	26127c08 	addiu	s2,s0,31752
     358:	3c142000 	lui	s4,0x2000
     35c:	26f78004 	addiu	s7,s7,-32764
     360:	1440002c 	bnez	v0,414 <TaskStart+0x128>
     364:	26d5ffff 	addiu	s5,s6,-1
     368:	8e820000 	lw	v0,0(s4)
     36c:	30430002 	andi	v1,v0,0x2
     370:	10600047 	beqz	v1,490 <TaskStart+0x1a4>
     374:	30430008 	andi	v1,v0,0x8
     378:	8f837b1c 	lw	v1,31516(gp)
     37c:	24040002 	li	a0,2
     380:	10640091 	beq	v1,a0,5c8 <TaskStart+0x2dc>
     384:	8e288008 	lw	t0,-32760(s1)
     388:	8e097c08 	lw	t1,31752(s0)
     38c:	af807b1c 	sw	zero,31516(gp)
     390:	2529ffff 	addiu	t1,t1,-1
     394:	0500006e 	bltz	t0,550 <TaskStart+0x264>
     398:	29020010 	slti	v0,t0,16
     39c:	0002400a 	movz	t0,zero,v0
     3a0:	0520004a 	bltz	t1,4cc <TaskStart+0x1e0>
     3a4:	29220010 	slti	v0,t1,16
     3a8:	0002480a 	movz	t1,zero,v0
     3ac:	8f827b20 	lw	v0,31520(gp)
     3b0:	2444ffff 	addiu	a0,v0,-1
     3b4:	18800049 	blez	a0,4dc <TaskStart+0x1f0>
     3b8:	00000000 	nop
     3bc:	02602825 	move	a1,s3
     3c0:	02403025 	move	a2,s2
     3c4:	10000004 	b	3d8 <TaskStart+0xec>
     3c8:	00001825 	move	v1,zero
     3cc:	24a50004 	addiu	a1,a1,4
     3d0:	1064001d 	beq	v1,a0,448 <TaskStart+0x15c>
     3d4:	24c60004 	addiu	a2,a2,4
     3d8:	8ca70000 	lw	a3,0(a1)
     3dc:	14e8fffb 	bne	a3,t0,3cc <TaskStart+0xe0>
     3e0:	24630001 	addiu	v1,v1,1
     3e4:	8cc70000 	lw	a3,0(a2)
     3e8:	14e9fff9 	bne	a3,t1,3d0 <TaskStart+0xe4>
     3ec:	24a50004 	addiu	a1,a1,4
     3f0:	24020001 	li	v0,1
     3f4:	af827b0c 	sw	v0,31500(gp)
     3f8:	0c000044 	jal	110 <send_frame>
     3fc:	00000000 	nop
     400:	0c0013e1 	jal	4f84 <OSTimeDly>
     404:	24040014 	li	a0,20
     408:	8f827b0c 	lw	v0,31500(gp)
     40c:	1040ffd6 	beqz	v0,368 <TaskStart+0x7c>
     410:	00000000 	nop
     414:	0c000044 	jal	110 <send_frame>
     418:	00000000 	nop
     41c:	8e820000 	lw	v0,0(s4)
     420:	30420001 	andi	v0,v0,0x1
     424:	1040fff6 	beqz	v0,400 <TaskStart+0x114>
     428:	00000000 	nop
     42c:	0c00009e 	jal	278 <snake_init>
     430:	00000000 	nop
     434:	2404000f 	li	a0,15
     438:	0c0013e1 	jal	4f84 <OSTimeDly>
     43c:	af807b0c 	sw	zero,31500(gp)
     440:	1000ffef 	b	400 <TaskStart+0x114>
     444:	00000000 	nop
     448:	8f837b18 	lw	v1,31512(gp)
     44c:	1103004e 	beq	t0,v1,588 <TaskStart+0x29c>
     450:	8f837b14 	lw	v1,31508(gp)
     454:	00551021 	addu	v0,v0,s5
     458:	00021080 	sll	v0,v0,0x2
     45c:	02621821 	addu	v1,s3,v0
     460:	02421021 	addu	v0,s2,v0
     464:	8c660000 	lw	a2,0(v1)
     468:	8c450000 	lw	a1,0(v0)
     46c:	2484ffff 	addiu	a0,a0,-1
     470:	ac660004 	sw	a2,4(v1)
     474:	ac450004 	sw	a1,4(v0)
     478:	2463fffc 	addiu	v1,v1,-4
     47c:	1480fff9 	bnez	a0,464 <TaskStart+0x178>
     480:	2442fffc 	addiu	v0,v0,-4
     484:	ae288008 	sw	t0,-32760(s1)
     488:	1000ffdb 	b	3f8 <TaskStart+0x10c>
     48c:	ae097c08 	sw	t1,31752(s0)
     490:	10600031 	beqz	v1,558 <TaskStart+0x26c>
     494:	30440010 	andi	a0,v0,0x10
     498:	8f837b1c 	lw	v1,31516(gp)
     49c:	14600044 	bnez	v1,5b0 <TaskStart+0x2c4>
     4a0:	00000000 	nop
     4a4:	30430010 	andi	v1,v0,0x10
     4a8:	1460003b 	bnez	v1,598 <TaskStart+0x2ac>
     4ac:	00000000 	nop
     4b0:	30420004 	andi	v0,v0,0x4
     4b4:	1440005c 	bnez	v0,628 <TaskStart+0x33c>
     4b8:	00000000 	nop
     4bc:	8e097c08 	lw	t1,31752(s0)
     4c0:	8e288008 	lw	t0,-32760(s1)
     4c4:	1000ffb3 	b	394 <TaskStart+0xa8>
     4c8:	2529ffff 	addiu	t1,t1,-1
     4cc:	8f827b20 	lw	v0,31520(gp)
     4d0:	2444ffff 	addiu	a0,v0,-1
     4d4:	1c80ffb9 	bgtz	a0,3bc <TaskStart+0xd0>
     4d8:	2409000f 	li	t1,15
     4dc:	8f837b18 	lw	v1,31512(gp)
     4e0:	1503ffe8 	bne	t0,v1,484 <TaskStart+0x198>
     4e4:	8f837b14 	lw	v1,31508(gp)
     4e8:	1523ffe6 	bne	t1,v1,484 <TaskStart+0x198>
     4ec:	00000000 	nop
     4f0:	1840000b 	blez	v0,520 <TaskStart+0x234>
     4f4:	00562021 	addu	a0,v0,s6
     4f8:	00042080 	sll	a0,a0,0x2
     4fc:	02641821 	addu	v1,s3,a0
     500:	02442021 	addu	a0,s2,a0
     504:	8c660000 	lw	a2,0(v1)
     508:	8c850000 	lw	a1,0(a0)
     50c:	ac660004 	sw	a2,4(v1)
     510:	2463fffc 	addiu	v1,v1,-4
     514:	ac850004 	sw	a1,4(a0)
     518:	1477fffa 	bne	v1,s7,504 <TaskStart+0x218>
     51c:	2484fffc 	addiu	a0,a0,-4
     520:	8f837b10 	lw	v1,31504(gp)
     524:	24420001 	addiu	v0,v0,1
     528:	24630001 	addiu	v1,v1,1
     52c:	28440100 	slti	a0,v0,256
     530:	ae288008 	sw	t0,-32760(s1)
     534:	ae097c08 	sw	t1,31752(s0)
     538:	af827b20 	sw	v0,31520(gp)
     53c:	14800040 	bnez	a0,640 <TaskStart+0x354>
     540:	af837b10 	sw	v1,31504(gp)
     544:	24020002 	li	v0,2
     548:	1000ffab 	b	3f8 <TaskStart+0x10c>
     54c:	af827b0c 	sw	v0,31500(gp)
     550:	1000ff93 	b	3a0 <TaskStart+0xb4>
     554:	2408000f 	li	t0,15
     558:	1080002d 	beqz	a0,610 <TaskStart+0x324>
     55c:	8f837b1c 	lw	v1,31516(gp)
     560:	24040001 	li	a0,1
     564:	1464000c 	bne	v1,a0,598 <TaskStart+0x2ac>
     568:	00000000 	nop
     56c:	30420004 	andi	v0,v0,0x4
     570:	1440002d 	bnez	v0,628 <TaskStart+0x33c>
     574:	00000000 	nop
     578:	8e288008 	lw	t0,-32760(s1)
     57c:	8e097c08 	lw	t1,31752(s0)
     580:	1000ff84 	b	394 <TaskStart+0xa8>
     584:	25080001 	addiu	t0,t0,1
     588:	1523ffb2 	bne	t1,v1,454 <TaskStart+0x168>
     58c:	00000000 	nop
     590:	1000ffd7 	b	4f0 <TaskStart+0x204>
     594:	00000000 	nop
     598:	24020003 	li	v0,3
     59c:	af827b1c 	sw	v0,31516(gp)
     5a0:	8e288008 	lw	t0,-32760(s1)
     5a4:	8e097c08 	lw	t1,31752(s0)
     5a8:	1000ff7a 	b	394 <TaskStart+0xa8>
     5ac:	2508ffff 	addiu	t0,t0,-1
     5b0:	24020002 	li	v0,2
     5b4:	8e288008 	lw	t0,-32760(s1)
     5b8:	8e097c08 	lw	t1,31752(s0)
     5bc:	af827b1c 	sw	v0,31516(gp)
     5c0:	1000ff74 	b	394 <TaskStart+0xa8>
     5c4:	25290001 	addiu	t1,t1,1
     5c8:	30440008 	andi	a0,v0,0x8
     5cc:	1480fff8 	bnez	a0,5b0 <TaskStart+0x2c4>
     5d0:	30440010 	andi	a0,v0,0x10
     5d4:	1480fff0 	bnez	a0,598 <TaskStart+0x2ac>
     5d8:	00000000 	nop
     5dc:	30420004 	andi	v0,v0,0x4
     5e0:	14400012 	bnez	v0,62c <TaskStart+0x340>
     5e4:	8e288008 	lw	t0,-32760(s1)
     5e8:	1060ff69 	beqz	v1,390 <TaskStart+0xa4>
     5ec:	8e097c08 	lw	t1,31752(s0)
     5f0:	24020002 	li	v0,2
     5f4:	1062fff2 	beq	v1,v0,5c0 <TaskStart+0x2d4>
     5f8:	00000000 	nop
     5fc:	24020003 	li	v0,3
     600:	1062ffe9 	beq	v1,v0,5a8 <TaskStart+0x2bc>
     604:	00000000 	nop
     608:	1000ff62 	b	394 <TaskStart+0xa8>
     60c:	25080001 	addiu	t0,t0,1
     610:	30420004 	andi	v0,v0,0x4
     614:	1040fff4 	beqz	v0,5e8 <TaskStart+0x2fc>
     618:	8e288008 	lw	t0,-32760(s1)
     61c:	24020003 	li	v0,3
     620:	1062ffe0 	beq	v1,v0,5a4 <TaskStart+0x2b8>
     624:	00000000 	nop
     628:	8e288008 	lw	t0,-32760(s1)
     62c:	24020001 	li	v0,1
     630:	af827b1c 	sw	v0,31516(gp)
     634:	8e097c08 	lw	t1,31752(s0)
     638:	1000ff56 	b	394 <TaskStart+0xa8>
     63c:	25080001 	addiu	t0,t0,1
     640:	0c000020 	jal	80 <place_food>
     644:	00000000 	nop
     648:	1000ff6b 	b	3f8 <TaskStart+0x10c>
     64c:	00000000 	nop

00000650 <uart_putc>:
     650:	308400ff 	andi	a0,a0,0xff
     654:	3c031000 	lui	v1,0x1000
     658:	90620005 	lbu	v0,5(v1)
     65c:	30420020 	andi	v0,v0,0x20
     660:	1040fffd 	beqz	v0,658 <uart_putc+0x8>
     664:	2402000a 	li	v0,10
     668:	a0640000 	sb	a0,0(v1)
     66c:	10820008 	beq	a0,v0,690 <uart_putc+0x40>
     670:	3c041000 	lui	a0,0x1000
     674:	24030060 	li	v1,96
     678:	90820005 	lbu	v0,5(a0)
     67c:	30420060 	andi	v0,v0,0x60
     680:	1443fffd 	bne	v0,v1,678 <uart_putc+0x28>
     684:	00000000 	nop
     688:	03e00008 	jr	ra
     68c:	00000000 	nop
     690:	3c031000 	lui	v1,0x1000
     694:	90620005 	lbu	v0,5(v1)
     698:	30420020 	andi	v0,v0,0x20
     69c:	1040fffd 	beqz	v0,694 <uart_putc+0x44>
     6a0:	2402000d 	li	v0,13
     6a4:	a0620000 	sb	v0,0(v1)
     6a8:	1000fff2 	b	674 <uart_putc+0x24>
     6ac:	3c041000 	lui	a0,0x1000

000006b0 <uart_putc_raw>:
     6b0:	308400ff 	andi	a0,a0,0xff
     6b4:	3c031000 	lui	v1,0x1000
     6b8:	90620005 	lbu	v0,5(v1)
     6bc:	30420020 	andi	v0,v0,0x20
     6c0:	1040fffd 	beqz	v0,6b8 <uart_putc_raw+0x8>
     6c4:	00000000 	nop
     6c8:	a0640000 	sb	a0,0(v1)
     6cc:	3c041000 	lui	a0,0x1000
     6d0:	24030060 	li	v1,96
     6d4:	90820005 	lbu	v0,5(a0)
     6d8:	30420060 	andi	v0,v0,0x60
     6dc:	1443fffd 	bne	v0,v1,6d4 <uart_putc_raw+0x24>
     6e0:	00000000 	nop
     6e4:	03e00008 	jr	ra
     6e8:	00000000 	nop

000006ec <uart_print_str>:
     6ec:	27bdffe0 	addiu	sp,sp,-32
     6f0:	afb00018 	sw	s0,24(sp)
     6f4:	afbf001c 	sw	ra,28(sp)
     6f8:	0c001d3c 	jal	74f0 <OS_CPU_SR_Save>
     6fc:	00808025 	move	s0,a0
     700:	02002025 	move	a0,s0
     704:	90870000 	lbu	a3,0(a0)
     708:	afa20010 	sw	v0,16(sp)
     70c:	3c061000 	lui	a2,0x1000
     710:	2408000a 	li	t0,10
     714:	2409000d 	li	t1,13
     718:	10e00011 	beqz	a3,760 <uart_print_str+0x74>
     71c:	24050060 	li	a1,96
     720:	3c031000 	lui	v1,0x1000
     724:	90620005 	lbu	v0,5(v1)
     728:	30420020 	andi	v0,v0,0x20
     72c:	1040fffd 	beqz	v0,724 <uart_print_str+0x38>
     730:	00000000 	nop
     734:	a0670000 	sb	a3,0(v1)
     738:	10e80011 	beq	a3,t0,780 <uart_print_str+0x94>
     73c:	3c031000 	lui	v1,0x1000
     740:	90c20005 	lbu	v0,5(a2)
     744:	30420060 	andi	v0,v0,0x60
     748:	1445fffd 	bne	v0,a1,740 <uart_print_str+0x54>
     74c:	00000000 	nop
     750:	24840001 	addiu	a0,a0,1
     754:	90870000 	lbu	a3,0(a0)
     758:	14e0fff2 	bnez	a3,724 <uart_print_str+0x38>
     75c:	3c031000 	lui	v1,0x1000
     760:	8fa40010 	lw	a0,16(sp)
     764:	0c001d43 	jal	750c <OS_CPU_SR_Restore>
     768:	00000000 	nop
     76c:	8fbf001c 	lw	ra,28(sp)
     770:	8fb00018 	lw	s0,24(sp)
     774:	03e00008 	jr	ra
     778:	27bd0020 	addiu	sp,sp,32
     77c:	3c031000 	lui	v1,0x1000
     780:	90620005 	lbu	v0,5(v1)
     784:	30420020 	andi	v0,v0,0x20
     788:	1040fffc 	beqz	v0,77c <uart_print_str+0x90>
     78c:	00000000 	nop
     790:	a0690000 	sb	t1,0(v1)
     794:	1000ffea 	b	740 <uart_print_str+0x54>
     798:	00000000 	nop

0000079c <uart_init>:
     79c:	3c021000 	lui	v0,0x1000
     7a0:	2403ff80 	li	v1,-128
     7a4:	a0430003 	sb	v1,3(v0)
     7a8:	2403ff8b 	li	v1,-117
     7ac:	a0430000 	sb	v1,0(v0)
     7b0:	24030002 	li	v1,2
     7b4:	a0430001 	sb	v1,1(v0)
     7b8:	3c040000 	lui	a0,0x0
     7bc:	24030003 	li	v1,3
     7c0:	a0400003 	sb	zero,3(v0)
     7c4:	24847a58 	addiu	a0,a0,31320
     7c8:	a0400001 	sb	zero,1(v0)
     7cc:	a0430003 	sb	v1,3(v0)
     7d0:	080001bb 	j	6ec <uart_print_str>
     7d4:	00000000 	nop

000007d8 <gpio_init>:
     7d8:	3c022000 	lui	v0,0x2000
     7dc:	2403ffff 	li	v1,-1
     7e0:	3c040000 	lui	a0,0x0
     7e4:	ac430008 	sw	v1,8(v0)
     7e8:	24847a74 	addiu	a0,a0,31348
     7ec:	ac40000c 	sw	zero,12(v0)
     7f0:	ac400004 	sw	zero,4(v0)
     7f4:	080001bb 	j	6ec <uart_print_str>
     7f8:	00000000 	nop

000007fc <gpio_out>:
     7fc:	3c022000 	lui	v0,0x2000
     800:	ac440004 	sw	a0,4(v0)
     804:	03e00008 	jr	ra
     808:	00000000 	nop

0000080c <gpio_in>:
     80c:	3c022000 	lui	v0,0x2000
     810:	8c420000 	lw	v0,0(v0)
     814:	03e00008 	jr	ra
     818:	00000000 	nop

0000081c <OSInitTick>:
     81c:	00001025 	move	v0,zero
     820:	40824800 	mtc0	v0,c0_count
     824:	3c02000f 	lui	v0,0xf
     828:	24424240 	addiu	v0,v0,16960
     82c:	40825800 	mtc0	v0,c0_compare
     830:	3c021000 	lui	v0,0x1000
     834:	24420401 	addiu	v0,v0,1025
     838:	03e00008 	jr	ra
     83c:	40826000 	mtc0	v0,c0_status

00000840 <OS_FlagBlock>:
     840:	8f827b78 	lw	v0,31608(gp)
     844:	90430034 	lbu	v1,52(v0)
     848:	a0400035 	sb	zero,53(v0)
     84c:	34630020 	ori	v1,v1,0x20
     850:	a0430034 	sb	v1,52(v0)
     854:	8fa30010 	lw	v1,16(sp)
     858:	ac450028 	sw	a1,40(v0)
     85c:	ac430030 	sw	v1,48(v0)
     860:	a0a70012 	sb	a3,18(a1)
     864:	8c830004 	lw	v1,4(a0)
     868:	a4a60010 	sh	a2,16(a1)
     86c:	aca20008 	sw	v0,8(a1)
     870:	aca30000 	sw	v1,0(a1)
     874:	aca00004 	sw	zero,4(a1)
     878:	10600002 	beqz	v1,884 <OS_FlagBlock+0x44>
     87c:	aca4000c 	sw	a0,12(a1)
     880:	ac650004 	sw	a1,4(v1)
     884:	ac850004 	sw	a1,4(a0)
     888:	90440038 	lbu	a0,56(v0)
     88c:	27837b68 	addiu	v1,gp,31592
     890:	00642021 	addu	a0,v1,a0
     894:	90430039 	lbu	v1,57(v0)
     898:	90850000 	lbu	a1,0(a0)
     89c:	00031827 	nor	v1,zero,v1
     8a0:	00651824 	and	v1,v1,a1
     8a4:	14600006 	bnez	v1,8c0 <OS_FlagBlock+0x80>
     8a8:	a0830000 	sb	v1,0(a0)
     8ac:	9042003a 	lbu	v0,58(v0)
     8b0:	93837b64 	lbu	v1,31588(gp)
     8b4:	00021027 	nor	v0,zero,v0
     8b8:	00431024 	and	v0,v0,v1
     8bc:	a3827b64 	sb	v0,31588(gp)
     8c0:	03e00008 	jr	ra
     8c4:	00000000 	nop

000008c8 <OS_FlagTaskRdy>:
     8c8:	8c820008 	lw	v0,8(a0)
     8cc:	90430034 	lbu	v1,52(v0)
     8d0:	ac400030 	sw	zero,48(v0)
     8d4:	306300df 	andi	v1,v1,0xdf
     8d8:	a445002c 	sh	a1,44(v0)
     8dc:	a0430034 	sb	v1,52(v0)
     8e0:	14600016 	bnez	v1,93c <OS_FlagTaskRdy+0x74>
     8e4:	a0400035 	sb	zero,53(v0)
     8e8:	90450038 	lbu	a1,56(v0)
     8ec:	27837b68 	addiu	v1,gp,31592
     8f0:	00651821 	addu	v1,v1,a1
     8f4:	90650000 	lbu	a1,0(v1)
     8f8:	9046003a 	lbu	a2,58(v0)
     8fc:	90420039 	lbu	v0,57(v0)
     900:	93877b64 	lbu	a3,31588(gp)
     904:	00a21025 	or	v0,a1,v0
     908:	a0620000 	sb	v0,0(v1)
     90c:	00c73025 	or	a2,a2,a3
     910:	8c850004 	lw	a1,4(a0)
     914:	a3867b64 	sb	a2,31588(gp)
     918:	24020001 	li	v0,1
     91c:	10a0000b 	beqz	a1,94c <OS_FlagTaskRdy+0x84>
     920:	8c830000 	lw	v1,0(a0)
     924:	10600002 	beqz	v1,930 <OS_FlagTaskRdy+0x68>
     928:	aca30000 	sw	v1,0(a1)
     92c:	ac650004 	sw	a1,4(v1)
     930:	8c830008 	lw	v1,8(a0)
     934:	03e00008 	jr	ra
     938:	ac600028 	sw	zero,40(v1)
     93c:	8c850004 	lw	a1,4(a0)
     940:	00001025 	move	v0,zero
     944:	14a0fff7 	bnez	a1,924 <OS_FlagTaskRdy+0x5c>
     948:	8c830000 	lw	v1,0(a0)
     94c:	8c85000c 	lw	a1,12(a0)
     950:	1060fff7 	beqz	v1,930 <OS_FlagTaskRdy+0x68>
     954:	aca30004 	sw	v1,4(a1)
     958:	ac600004 	sw	zero,4(v1)
     95c:	8c830008 	lw	v1,8(a0)
     960:	03e00008 	jr	ra
     964:	ac600028 	sw	zero,40(v1)

00000968 <OSFlagAccept>:
     968:	27bdffc8 	addiu	sp,sp,-56
     96c:	afbf0034 	sw	ra,52(sp)
     970:	afb50030 	sw	s5,48(sp)
     974:	afb4002c 	sw	s4,44(sp)
     978:	afb30028 	sw	s3,40(sp)
     97c:	afb20024 	sw	s2,36(sp)
     980:	afb10020 	sw	s1,32(sp)
     984:	afb0001c 	sw	s0,28(sp)
     988:	90830000 	lbu	v1,0(a0)
     98c:	24020005 	li	v0,5
     990:	afa00010 	sw	zero,16(sp)
     994:	1062000c 	beq	v1,v0,9c8 <OSFlagAccept+0x60>
     998:	24020001 	li	v0,1
     99c:	a0e20000 	sb	v0,0(a3)
     9a0:	00001025 	move	v0,zero
     9a4:	8fbf0034 	lw	ra,52(sp)
     9a8:	8fb50030 	lw	s5,48(sp)
     9ac:	8fb4002c 	lw	s4,44(sp)
     9b0:	8fb30028 	lw	s3,40(sp)
     9b4:	8fb20024 	lw	s2,36(sp)
     9b8:	8fb10020 	lw	s1,32(sp)
     9bc:	8fb0001c 	lw	s0,28(sp)
     9c0:	03e00008 	jr	ra
     9c4:	27bd0038 	addiu	sp,sp,56
     9c8:	30d200ff 	andi	s2,a2,0xff
     9cc:	32420080 	andi	v0,s2,0x80
     9d0:	14400019 	bnez	v0,a38 <OSFlagAccept+0xd0>
     9d4:	30b0ffff 	andi	s0,a1,0xffff
     9d8:	00009825 	move	s3,zero
     9dc:	a0e00000 	sb	zero,0(a3)
     9e0:	00e0a825 	move	s5,a3
     9e4:	0c001d3c 	jal	74f0 <OS_CPU_SR_Save>
     9e8:	0080a025 	move	s4,a0
     9ec:	24030001 	li	v1,1
     9f0:	afa20010 	sw	v0,16(sp)
     9f4:	12430036 	beq	s2,v1,ad0 <OSFlagAccept+0x168>
     9f8:	00000000 	nop
     9fc:	1240002b 	beqz	s2,aac <OSFlagAccept+0x144>
     a00:	24020002 	li	v0,2
     a04:	12420016 	beq	s2,v0,a60 <OSFlagAccept+0xf8>
     a08:	24020003 	li	v0,3
     a0c:	1642000d 	bne	s2,v0,a44 <OSFlagAccept+0xdc>
     a10:	00000000 	nop
     a14:	96820008 	lhu	v0,8(s4)
     a18:	02028024 	and	s0,s0,v0
     a1c:	12000035 	beqz	s0,af4 <OSFlagAccept+0x18c>
     a20:	00000000 	nop
     a24:	16630035 	bne	s3,v1,afc <OSFlagAccept+0x194>
     a28:	00101827 	nor	v1,zero,s0
     a2c:	00431024 	and	v0,v0,v1
     a30:	10000032 	b	afc <OSFlagAccept+0x194>
     a34:	a6820008 	sh	v0,8(s4)
     a38:	3252007f 	andi	s2,s2,0x7f
     a3c:	1000ffe7 	b	9dc <OSFlagAccept+0x74>
     a40:	24130001 	li	s3,1
     a44:	8fa40010 	lw	a0,16(sp)
     a48:	0c001d43 	jal	750c <OS_CPU_SR_Restore>
     a4c:	00000000 	nop
     a50:	2402006f 	li	v0,111
     a54:	a2a20000 	sb	v0,0(s5)
     a58:	1000ffd2 	b	9a4 <OSFlagAccept+0x3c>
     a5c:	00001025 	move	v0,zero
     a60:	96820008 	lhu	v0,8(s4)
     a64:	00508824 	and	s1,v0,s0
     a68:	12110029 	beq	s0,s1,b10 <OSFlagAccept+0x1a8>
     a6c:	00000000 	nop
     a70:	24020070 	li	v0,112
     a74:	a2a20000 	sb	v0,0(s5)
     a78:	8fa40010 	lw	a0,16(sp)
     a7c:	0c001d43 	jal	750c <OS_CPU_SR_Restore>
     a80:	00000000 	nop
     a84:	8fbf0034 	lw	ra,52(sp)
     a88:	02201025 	move	v0,s1
     a8c:	8fb50030 	lw	s5,48(sp)
     a90:	8fb4002c 	lw	s4,44(sp)
     a94:	8fb30028 	lw	s3,40(sp)
     a98:	8fb20024 	lw	s2,36(sp)
     a9c:	8fb10020 	lw	s1,32(sp)
     aa0:	8fb0001c 	lw	s0,28(sp)
     aa4:	03e00008 	jr	ra
     aa8:	27bd0038 	addiu	sp,sp,56
     aac:	96840008 	lhu	a0,8(s4)
     ab0:	00041027 	nor	v0,zero,a0
     ab4:	02028824 	and	s1,s0,v0
     ab8:	1611ffee 	bne	s0,s1,a74 <OSFlagAccept+0x10c>
     abc:	24020070 	li	v0,112
     ac0:	1663ffed 	bne	s3,v1,a78 <OSFlagAccept+0x110>
     ac4:	02242025 	or	a0,s1,a0
     ac8:	1000ffeb 	b	a78 <OSFlagAccept+0x110>
     acc:	a6840008 	sh	a0,8(s4)
     ad0:	96830008 	lhu	v1,8(s4)
     ad4:	00031027 	nor	v0,zero,v1
     ad8:	02028824 	and	s1,s0,v0
     adc:	1220ffe5 	beqz	s1,a74 <OSFlagAccept+0x10c>
     ae0:	24020070 	li	v0,112
     ae4:	1672ffe4 	bne	s3,s2,a78 <OSFlagAccept+0x110>
     ae8:	02038025 	or	s0,s0,v1
     aec:	1000ffe2 	b	a78 <OSFlagAccept+0x110>
     af0:	a6900008 	sh	s0,8(s4)
     af4:	24020070 	li	v0,112
     af8:	a2a20000 	sb	v0,0(s5)
     afc:	8fa40010 	lw	a0,16(sp)
     b00:	0c001d43 	jal	750c <OS_CPU_SR_Restore>
     b04:	00000000 	nop
     b08:	1000ffa6 	b	9a4 <OSFlagAccept+0x3c>
     b0c:	02001025 	move	v0,s0
     b10:	1663ffd9 	bne	s3,v1,a78 <OSFlagAccept+0x110>
     b14:	00111827 	nor	v1,zero,s1
     b18:	00431024 	and	v0,v0,v1
     b1c:	1000ffd6 	b	a78 <OSFlagAccept+0x110>
     b20:	a6820008 	sh	v0,8(s4)

00000b24 <OSFlagCreate>:
     b24:	93827b74 	lbu	v0,31604(gp)
     b28:	27bdffd8 	addiu	sp,sp,-40
     b2c:	afbf0024 	sw	ra,36(sp)
     b30:	afb20020 	sw	s2,32(sp)
     b34:	afb1001c 	sw	s1,28(sp)
     b38:	afb00018 	sw	s0,24(sp)
     b3c:	afa00010 	sw	zero,16(sp)
     b40:	1440001a 	bnez	v0,bac <OSFlagCreate+0x88>
     b44:	3092ffff 	andi	s2,a0,0xffff
     b48:	0c001d3c 	jal	74f0 <OS_CPU_SR_Save>
     b4c:	00a08825 	move	s1,a1
     b50:	8f907b88 	lw	s0,31624(gp)
     b54:	afa20010 	sw	v0,16(sp)
     b58:	1200001d 	beqz	s0,bd0 <OSFlagCreate+0xac>
     b5c:	00000000 	nop
     b60:	8e020004 	lw	v0,4(s0)
     b64:	8fa40010 	lw	a0,16(sp)
     b68:	af827b88 	sw	v0,31624(gp)
     b6c:	24020005 	li	v0,5
     b70:	a2020000 	sb	v0,0(s0)
     b74:	3c020000 	lui	v0,0x0
     b78:	24427a90 	addiu	v0,v0,31376
     b7c:	a6120008 	sh	s2,8(s0)
     b80:	ae02000c 	sw	v0,12(s0)
     b84:	0c001d43 	jal	750c <OS_CPU_SR_Restore>
     b88:	ae000004 	sw	zero,4(s0)
     b8c:	a2200000 	sb	zero,0(s1)
     b90:	8fbf0024 	lw	ra,36(sp)
     b94:	02001025 	move	v0,s0
     b98:	8fb20020 	lw	s2,32(sp)
     b9c:	8fb1001c 	lw	s1,28(sp)
     ba0:	8fb00018 	lw	s0,24(sp)
     ba4:	03e00008 	jr	ra
     ba8:	27bd0028 	addiu	sp,sp,40
     bac:	8fbf0024 	lw	ra,36(sp)
     bb0:	24020010 	li	v0,16
     bb4:	8fb20020 	lw	s2,32(sp)
     bb8:	8fb1001c 	lw	s1,28(sp)
     bbc:	8fb00018 	lw	s0,24(sp)
     bc0:	a0a20000 	sb	v0,0(a1)
     bc4:	00001025 	move	v0,zero
     bc8:	03e00008 	jr	ra
     bcc:	27bd0028 	addiu	sp,sp,40
     bd0:	8fa40010 	lw	a0,16(sp)
     bd4:	0c001d43 	jal	750c <OS_CPU_SR_Restore>
     bd8:	00000000 	nop
     bdc:	24020072 	li	v0,114
     be0:	a2220000 	sb	v0,0(s1)
     be4:	8fbf0024 	lw	ra,36(sp)
     be8:	8fb20020 	lw	s2,32(sp)
     bec:	8fb1001c 	lw	s1,28(sp)
     bf0:	8fb00018 	lw	s0,24(sp)
     bf4:	00001025 	move	v0,zero
     bf8:	03e00008 	jr	ra
     bfc:	27bd0028 	addiu	sp,sp,40

00000c00 <OSFlagDel>:
     c00:	93827b74 	lbu	v0,31604(gp)
     c04:	27bdffd8 	addiu	sp,sp,-40
     c08:	afb1001c 	sw	s1,28(sp)
     c0c:	afb00018 	sw	s0,24(sp)
     c10:	afbf0024 	sw	ra,36(sp)
     c14:	afb20020 	sw	s2,32(sp)
     c18:	00808025 	move	s0,a0
     c1c:	00c08825 	move	s1,a2
     c20:	afa00010 	sw	zero,16(sp)
     c24:	1440000c 	bnez	v0,c58 <OSFlagDel+0x58>
     c28:	24020005 	li	v0,5
     c2c:	90830000 	lbu	v1,0(a0)
     c30:	10620012 	beq	v1,v0,c7c <OSFlagDel+0x7c>
     c34:	24020001 	li	v0,1
     c38:	a0c20000 	sb	v0,0(a2)
     c3c:	8fbf0024 	lw	ra,36(sp)
     c40:	02001025 	move	v0,s0
     c44:	8fb20020 	lw	s2,32(sp)
     c48:	8fb1001c 	lw	s1,28(sp)
     c4c:	8fb00018 	lw	s0,24(sp)
     c50:	03e00008 	jr	ra
     c54:	27bd0028 	addiu	sp,sp,40
     c58:	8fbf0024 	lw	ra,36(sp)
     c5c:	2402000f 	li	v0,15
     c60:	8fb20020 	lw	s2,32(sp)
     c64:	8fb1001c 	lw	s1,28(sp)
     c68:	a0c20000 	sb	v0,0(a2)
     c6c:	02001025 	move	v0,s0
     c70:	8fb00018 	lw	s0,24(sp)
     c74:	03e00008 	jr	ra
     c78:	27bd0028 	addiu	sp,sp,40
     c7c:	0c001d3c 	jal	74f0 <OS_CPU_SR_Save>
     c80:	30b200ff 	andi	s2,a1,0xff
     c84:	8e080004 	lw	t0,4(s0)
     c88:	afa20010 	sw	v0,16(sp)
     c8c:	1100002a 	beqz	t0,d38 <OSFlagDel+0x138>
     c90:	00000000 	nop
     c94:	12400022 	beqz	s2,d20 <OSFlagDel+0x120>
     c98:	24020001 	li	v0,1
     c9c:	16420016 	bne	s2,v0,cf8 <OSFlagDel+0xf8>
     ca0:	01002025 	move	a0,t0
     ca4:	0c000232 	jal	8c8 <OS_FlagTaskRdy>
     ca8:	00002825 	move	a1,zero
     cac:	8d080000 	lw	t0,0(t0)
     cb0:	1500fffc 	bnez	t0,ca4 <OSFlagDel+0xa4>
     cb4:	01002025 	move	a0,t0
     cb8:	24120001 	li	s2,1
     cbc:	3c020000 	lui	v0,0x0
     cc0:	a2000000 	sb	zero,0(s0)
     cc4:	24427a90 	addiu	v0,v0,31376
     cc8:	ae02000c 	sw	v0,12(s0)
     ccc:	8f827b88 	lw	v0,31624(gp)
     cd0:	8fa40010 	lw	a0,16(sp)
     cd4:	ae020004 	sw	v0,4(s0)
     cd8:	a6000008 	sh	zero,8(s0)
     cdc:	0c001d43 	jal	750c <OS_CPU_SR_Restore>
     ce0:	af907b88 	sw	s0,31624(gp)
     ce4:	1640000a 	bnez	s2,d10 <OSFlagDel+0x110>
     ce8:	00000000 	nop
     cec:	a2200000 	sb	zero,0(s1)
     cf0:	1000ffd2 	b	c3c <OSFlagDel+0x3c>
     cf4:	00008025 	move	s0,zero
     cf8:	8fa40010 	lw	a0,16(sp)
     cfc:	0c001d43 	jal	750c <OS_CPU_SR_Restore>
     d00:	00000000 	nop
     d04:	24020007 	li	v0,7
     d08:	1000ffcc 	b	c3c <OSFlagDel+0x3c>
     d0c:	a2220000 	sb	v0,0(s1)
     d10:	0c001a02 	jal	6808 <OS_Sched>
     d14:	00008025 	move	s0,zero
     d18:	1000ffc8 	b	c3c <OSFlagDel+0x3c>
     d1c:	a2200000 	sb	zero,0(s1)
     d20:	8fa40010 	lw	a0,16(sp)
     d24:	0c001d43 	jal	750c <OS_CPU_SR_Restore>
     d28:	00000000 	nop
     d2c:	24020049 	li	v0,73
     d30:	1000ffc2 	b	c3c <OSFlagDel+0x3c>
     d34:	a2220000 	sb	v0,0(s1)
     d38:	12400005 	beqz	s2,d50 <OSFlagDel+0x150>
     d3c:	24020001 	li	v0,1
     d40:	1642ffed 	bne	s2,v0,cf8 <OSFlagDel+0xf8>
     d44:	00009025 	move	s2,zero
     d48:	1000ffdd 	b	cc0 <OSFlagDel+0xc0>
     d4c:	3c020000 	lui	v0,0x0
     d50:	3c020000 	lui	v0,0x0
     d54:	a2000000 	sb	zero,0(s0)
     d58:	24427a90 	addiu	v0,v0,31376
     d5c:	ae02000c 	sw	v0,12(s0)
     d60:	8f827b88 	lw	v0,31624(gp)
     d64:	8fa40010 	lw	a0,16(sp)
     d68:	ae020004 	sw	v0,4(s0)
     d6c:	a6000008 	sh	zero,8(s0)
     d70:	0c001d43 	jal	750c <OS_CPU_SR_Restore>
     d74:	af907b88 	sw	s0,31624(gp)
     d78:	00008025 	move	s0,zero
     d7c:	1000ffaf 	b	c3c <OSFlagDel+0x3c>
     d80:	a2200000 	sb	zero,0(s1)

00000d84 <OSFlagNameGet>:
     d84:	27bdffd0 	addiu	sp,sp,-48
     d88:	afb0001c 	sw	s0,28(sp)
     d8c:	93907b74 	lbu	s0,31604(gp)
     d90:	afbf002c 	sw	ra,44(sp)
     d94:	afb30028 	sw	s3,40(sp)
     d98:	afb20024 	sw	s2,36(sp)
     d9c:	afb10020 	sw	s1,32(sp)
     da0:	afa00010 	sw	zero,16(sp)
     da4:	1200000b 	beqz	s0,dd4 <OSFlagNameGet+0x50>
     da8:	8fbf002c 	lw	ra,44(sp)
     dac:	24020011 	li	v0,17
     db0:	00008025 	move	s0,zero
     db4:	8fb30028 	lw	s3,40(sp)
     db8:	8fb20024 	lw	s2,36(sp)
     dbc:	8fb10020 	lw	s1,32(sp)
     dc0:	a0c20000 	sb	v0,0(a2)
     dc4:	02001025 	move	v0,s0
     dc8:	8fb0001c 	lw	s0,28(sp)
     dcc:	03e00008 	jr	ra
     dd0:	27bd0030 	addiu	sp,sp,48
     dd4:	00808825 	move	s1,a0
     dd8:	00c09025 	move	s2,a2
     ddc:	0c001d3c 	jal	74f0 <OS_CPU_SR_Save>
     de0:	00a09825 	move	s3,a1
     de4:	92230000 	lbu	v1,0(s1)
     de8:	afa20010 	sw	v0,16(sp)
     dec:	24020005 	li	v0,5
     df0:	1062000e 	beq	v1,v0,e2c <OSFlagNameGet+0xa8>
     df4:	00000000 	nop
     df8:	8fa40010 	lw	a0,16(sp)
     dfc:	0c001d43 	jal	750c <OS_CPU_SR_Restore>
     e00:	00000000 	nop
     e04:	24020001 	li	v0,1
     e08:	a2420000 	sb	v0,0(s2)
     e0c:	8fbf002c 	lw	ra,44(sp)
     e10:	02001025 	move	v0,s0
     e14:	8fb30028 	lw	s3,40(sp)
     e18:	8fb20024 	lw	s2,36(sp)
     e1c:	8fb10020 	lw	s1,32(sp)
     e20:	8fb0001c 	lw	s0,28(sp)
     e24:	03e00008 	jr	ra
     e28:	27bd0030 	addiu	sp,sp,48
     e2c:	8e22000c 	lw	v0,12(s1)
     e30:	00402025 	move	a0,v0
     e34:	0c001b75 	jal	6dd4 <OS_StrLen>
     e38:	ae620000 	sw	v0,0(s3)
     e3c:	8fa40010 	lw	a0,16(sp)
     e40:	0c001d43 	jal	750c <OS_CPU_SR_Restore>
     e44:	00408025 	move	s0,v0
     e48:	a2400000 	sb	zero,0(s2)
     e4c:	8fbf002c 	lw	ra,44(sp)
     e50:	02001025 	move	v0,s0
     e54:	8fb30028 	lw	s3,40(sp)
     e58:	8fb20024 	lw	s2,36(sp)
     e5c:	8fb10020 	lw	s1,32(sp)
     e60:	8fb0001c 	lw	s0,28(sp)
     e64:	03e00008 	jr	ra
     e68:	27bd0030 	addiu	sp,sp,48

00000e6c <OSFlagNameSet>:
     e6c:	93827b74 	lbu	v0,31604(gp)
     e70:	27bdffd8 	addiu	sp,sp,-40
     e74:	afbf0024 	sw	ra,36(sp)
     e78:	afb20020 	sw	s2,32(sp)
     e7c:	afb1001c 	sw	s1,28(sp)
     e80:	afb00018 	sw	s0,24(sp)
     e84:	afa00010 	sw	zero,16(sp)
     e88:	10400008 	beqz	v0,eac <OSFlagNameSet+0x40>
     e8c:	8fbf0024 	lw	ra,36(sp)
     e90:	24020012 	li	v0,18
     e94:	8fb20020 	lw	s2,32(sp)
     e98:	8fb1001c 	lw	s1,28(sp)
     e9c:	8fb00018 	lw	s0,24(sp)
     ea0:	a0c20000 	sb	v0,0(a2)
     ea4:	03e00008 	jr	ra
     ea8:	27bd0028 	addiu	sp,sp,40
     eac:	00808025 	move	s0,a0
     eb0:	00c08825 	move	s1,a2
     eb4:	0c001d3c 	jal	74f0 <OS_CPU_SR_Save>
     eb8:	00a09025 	move	s2,a1
     ebc:	92030000 	lbu	v1,0(s0)
     ec0:	afa20010 	sw	v0,16(sp)
     ec4:	24020005 	li	v0,5
     ec8:	8fa40010 	lw	a0,16(sp)
     ecc:	1062000b 	beq	v1,v0,efc <OSFlagNameSet+0x90>
     ed0:	00000000 	nop
     ed4:	0c001d43 	jal	750c <OS_CPU_SR_Restore>
     ed8:	00000000 	nop
     edc:	24020001 	li	v0,1
     ee0:	a2220000 	sb	v0,0(s1)
     ee4:	8fbf0024 	lw	ra,36(sp)
     ee8:	8fb20020 	lw	s2,32(sp)
     eec:	8fb1001c 	lw	s1,28(sp)
     ef0:	8fb00018 	lw	s0,24(sp)
     ef4:	03e00008 	jr	ra
     ef8:	27bd0028 	addiu	sp,sp,40
     efc:	0c001d43 	jal	750c <OS_CPU_SR_Restore>
     f00:	ae12000c 	sw	s2,12(s0)
     f04:	a2200000 	sb	zero,0(s1)
     f08:	8fbf0024 	lw	ra,36(sp)
     f0c:	8fb20020 	lw	s2,32(sp)
     f10:	8fb1001c 	lw	s1,28(sp)
     f14:	8fb00018 	lw	s0,24(sp)
     f18:	03e00008 	jr	ra
     f1c:	27bd0028 	addiu	sp,sp,40

00000f20 <OSFlagPend>:
     f20:	93827b74 	lbu	v0,31604(gp)
     f24:	27bdffb0 	addiu	sp,sp,-80
     f28:	afbf004c 	sw	ra,76(sp)
     f2c:	afb50048 	sw	s5,72(sp)
     f30:	afb40044 	sw	s4,68(sp)
     f34:	afb30040 	sw	s3,64(sp)
     f38:	afb2003c 	sw	s2,60(sp)
     f3c:	afb10038 	sw	s1,56(sp)
     f40:	afb00034 	sw	s0,52(sp)
     f44:	afa0002c 	sw	zero,44(sp)
     f48:	1440001f 	bnez	v0,fc8 <OSFlagPend+0xa8>
     f4c:	93827b28 	lbu	v0,31528(gp)
     f50:	14400010 	bnez	v0,f94 <OSFlagPend+0x74>
     f54:	24020005 	li	v0,5
     f58:	90830000 	lbu	v1,0(a0)
     f5c:	10620027 	beq	v1,v0,ffc <OSFlagPend+0xdc>
     f60:	8fa30060 	lw	v1,96(sp)
     f64:	24020001 	li	v0,1
     f68:	a0620000 	sb	v0,0(v1)
     f6c:	00001025 	move	v0,zero
     f70:	8fbf004c 	lw	ra,76(sp)
     f74:	8fb50048 	lw	s5,72(sp)
     f78:	8fb40044 	lw	s4,68(sp)
     f7c:	8fb30040 	lw	s3,64(sp)
     f80:	8fb2003c 	lw	s2,60(sp)
     f84:	8fb10038 	lw	s1,56(sp)
     f88:	8fb00034 	lw	s0,52(sp)
     f8c:	03e00008 	jr	ra
     f90:	27bd0050 	addiu	sp,sp,80
     f94:	8fa30060 	lw	v1,96(sp)
     f98:	2402000d 	li	v0,13
     f9c:	a0620000 	sb	v0,0(v1)
     fa0:	8fbf004c 	lw	ra,76(sp)
     fa4:	8fb50048 	lw	s5,72(sp)
     fa8:	8fb40044 	lw	s4,68(sp)
     fac:	8fb30040 	lw	s3,64(sp)
     fb0:	8fb2003c 	lw	s2,60(sp)
     fb4:	8fb10038 	lw	s1,56(sp)
     fb8:	8fb00034 	lw	s0,52(sp)
     fbc:	00001025 	move	v0,zero
     fc0:	03e00008 	jr	ra
     fc4:	27bd0050 	addiu	sp,sp,80
     fc8:	8fa30060 	lw	v1,96(sp)
     fcc:	24020002 	li	v0,2
     fd0:	a0620000 	sb	v0,0(v1)
     fd4:	8fbf004c 	lw	ra,76(sp)
     fd8:	8fb50048 	lw	s5,72(sp)
     fdc:	8fb40044 	lw	s4,68(sp)
     fe0:	8fb30040 	lw	s3,64(sp)
     fe4:	8fb2003c 	lw	s2,60(sp)
     fe8:	8fb10038 	lw	s1,56(sp)
     fec:	8fb00034 	lw	s0,52(sp)
     ff0:	00001025 	move	v0,zero
     ff4:	03e00008 	jr	ra
     ff8:	27bd0050 	addiu	sp,sp,80
     ffc:	30d100ff 	andi	s1,a2,0xff
    1000:	32220080 	andi	v0,s1,0x80
    1004:	10400020 	beqz	v0,1088 <OSFlagPend+0x168>
    1008:	30b3ffff 	andi	s3,a1,0xffff
    100c:	3231007f 	andi	s1,s1,0x7f
    1010:	24140001 	li	s4,1
    1014:	00e0a825 	move	s5,a3
    1018:	0c001d3c 	jal	74f0 <OS_CPU_SR_Save>
    101c:	00809025 	move	s2,a0
    1020:	24030001 	li	v1,1
    1024:	afa2002c 	sw	v0,44(sp)
    1028:	1223003a 	beq	s1,v1,1114 <OSFlagPend+0x1f4>
    102c:	00000000 	nop
    1030:	1220002f 	beqz	s1,10f0 <OSFlagPend+0x1d0>
    1034:	24020002 	li	v0,2
    1038:	1222001d 	beq	s1,v0,10b0 <OSFlagPend+0x190>
    103c:	24020003 	li	v0,3
    1040:	16220013 	bne	s1,v0,1090 <OSFlagPend+0x170>
    1044:	00000000 	nop
    1048:	96420008 	lhu	v0,8(s2)
    104c:	02628024 	and	s0,s3,v0
    1050:	12000076 	beqz	s0,122c <OSFlagPend+0x30c>
    1054:	02402025 	move	a0,s2
    1058:	16830003 	bne	s4,v1,1068 <OSFlagPend+0x148>
    105c:	00101827 	nor	v1,zero,s0
    1060:	00431024 	and	v0,v0,v1
    1064:	a6420008 	sh	v0,8(s2)
    1068:	8f827b78 	lw	v0,31608(gp)
    106c:	8fa4002c 	lw	a0,44(sp)
    1070:	0c001d43 	jal	750c <OS_CPU_SR_Restore>
    1074:	a450002c 	sh	s0,44(v0)
    1078:	8fa20060 	lw	v0,96(sp)
    107c:	a0400000 	sb	zero,0(v0)
    1080:	1000ffbb 	b	f70 <OSFlagPend+0x50>
    1084:	02001025 	move	v0,s0
    1088:	1000ffe2 	b	1014 <OSFlagPend+0xf4>
    108c:	0000a025 	move	s4,zero
    1090:	8fa4002c 	lw	a0,44(sp)
    1094:	0c001d43 	jal	750c <OS_CPU_SR_Restore>
    1098:	00000000 	nop
    109c:	8fa30060 	lw	v1,96(sp)
    10a0:	2402006f 	li	v0,111
    10a4:	a0620000 	sb	v0,0(v1)
    10a8:	1000ffb1 	b	f70 <OSFlagPend+0x50>
    10ac:	00001025 	move	v0,zero
    10b0:	96420008 	lhu	v0,8(s2)
    10b4:	00532024 	and	a0,v0,s3
    10b8:	16640055 	bne	s3,a0,1210 <OSFlagPend+0x2f0>
    10bc:	02402025 	move	a0,s2
    10c0:	16830003 	bne	s4,v1,10d0 <OSFlagPend+0x1b0>
    10c4:	00131827 	nor	v1,zero,s3
    10c8:	00431024 	and	v0,v0,v1
    10cc:	a6420008 	sh	v0,8(s2)
    10d0:	8f827b78 	lw	v0,31608(gp)
    10d4:	8fa4002c 	lw	a0,44(sp)
    10d8:	0c001d43 	jal	750c <OS_CPU_SR_Restore>
    10dc:	a453002c 	sh	s3,44(v0)
    10e0:	8fa20060 	lw	v0,96(sp)
    10e4:	a0400000 	sb	zero,0(v0)
    10e8:	1000ffa1 	b	f70 <OSFlagPend+0x50>
    10ec:	02601025 	move	v0,s3
    10f0:	96420008 	lhu	v0,8(s2)
    10f4:	00532024 	and	a0,v0,s3
    10f8:	14800010 	bnez	a0,113c <OSFlagPend+0x21c>
    10fc:	02402025 	move	a0,s2
    1100:	1683fff3 	bne	s4,v1,10d0 <OSFlagPend+0x1b0>
    1104:	00000000 	nop
    1108:	02621025 	or	v0,s3,v0
    110c:	1000fff0 	b	10d0 <OSFlagPend+0x1b0>
    1110:	a6420008 	sh	v0,8(s2)
    1114:	96430008 	lhu	v1,8(s2)
    1118:	00031027 	nor	v0,zero,v1
    111c:	02628024 	and	s0,s3,v0
    1120:	12000045 	beqz	s0,1238 <OSFlagPend+0x318>
    1124:	02402025 	move	a0,s2
    1128:	1691ffcf 	bne	s4,s1,1068 <OSFlagPend+0x148>
    112c:	00000000 	nop
    1130:	02631025 	or	v0,s3,v1
    1134:	1000ffcc 	b	1068 <OSFlagPend+0x148>
    1138:	a6420008 	sh	v0,8(s2)
    113c:	afb50010 	sw	s5,16(sp)
    1140:	00003825 	move	a3,zero
    1144:	02603025 	move	a2,s3
    1148:	0c000210 	jal	840 <OS_FlagBlock>
    114c:	27a50018 	addiu	a1,sp,24
    1150:	8fa4002c 	lw	a0,44(sp)
    1154:	0c001d43 	jal	750c <OS_CPU_SR_Restore>
    1158:	00000000 	nop
    115c:	0c001a02 	jal	6808 <OS_Sched>
    1160:	00000000 	nop
    1164:	0c001d3c 	jal	74f0 <OS_CPU_SR_Save>
    1168:	00000000 	nop
    116c:	8f837b78 	lw	v1,31608(gp)
    1170:	afa2002c 	sw	v0,44(sp)
    1174:	90700035 	lbu	s0,53(v1)
    1178:	12000013 	beqz	s0,11c8 <OSFlagPend+0x2a8>
    117c:	8fa4001c 	lw	a0,28(sp)
    1180:	a0600035 	sb	zero,53(v1)
    1184:	10800033 	beqz	a0,1254 <OSFlagPend+0x334>
    1188:	8fa20018 	lw	v0,24(sp)
    118c:	10400002 	beqz	v0,1198 <OSFlagPend+0x278>
    1190:	ac820000 	sw	v0,0(a0)
    1194:	ac440004 	sw	a0,4(v0)
    1198:	8fa20020 	lw	v0,32(sp)
    119c:	8fa4002c 	lw	a0,44(sp)
    11a0:	ac400028 	sw	zero,40(v0)
    11a4:	0c001d43 	jal	750c <OS_CPU_SR_Restore>
    11a8:	a0600034 	sb	zero,52(v1)
    11ac:	24020002 	li	v0,2
    11b0:	1602001a 	bne	s0,v0,121c <OSFlagPend+0x2fc>
    11b4:	8fa30060 	lw	v1,96(sp)
    11b8:	2402000e 	li	v0,14
    11bc:	a0620000 	sb	v0,0(v1)
    11c0:	1000ff6b 	b	f70 <OSFlagPend+0x50>
    11c4:	00001025 	move	v0,zero
    11c8:	1280000a 	beqz	s4,11f4 <OSFlagPend+0x2d4>
    11cc:	9470002c 	lhu	s0,44(v1)
    11d0:	2e220002 	sltiu	v0,s1,2
    11d4:	1440001b 	bnez	v0,1244 <OSFlagPend+0x324>
    11d8:	2e310004 	sltiu	s1,s1,4
    11dc:	1220ffac 	beqz	s1,1090 <OSFlagPend+0x170>
    11e0:	00000000 	nop
    11e4:	96430008 	lhu	v1,8(s2)
    11e8:	00101027 	nor	v0,zero,s0
    11ec:	00431024 	and	v0,v0,v1
    11f0:	a6420008 	sh	v0,8(s2)
    11f4:	8fa4002c 	lw	a0,44(sp)
    11f8:	0c001d43 	jal	750c <OS_CPU_SR_Restore>
    11fc:	00000000 	nop
    1200:	8fa20060 	lw	v0,96(sp)
    1204:	a0400000 	sb	zero,0(v0)
    1208:	1000ff59 	b	f70 <OSFlagPend+0x50>
    120c:	02001025 	move	v0,s0
    1210:	afb50010 	sw	s5,16(sp)
    1214:	1000ffcb 	b	1144 <OSFlagPend+0x224>
    1218:	24070002 	li	a3,2
    121c:	2402000a 	li	v0,10
    1220:	a0620000 	sb	v0,0(v1)
    1224:	1000ff52 	b	f70 <OSFlagPend+0x50>
    1228:	00001025 	move	v0,zero
    122c:	afb50010 	sw	s5,16(sp)
    1230:	1000ffc4 	b	1144 <OSFlagPend+0x224>
    1234:	24070003 	li	a3,3
    1238:	afb50010 	sw	s5,16(sp)
    123c:	1000ffc1 	b	1144 <OSFlagPend+0x224>
    1240:	24070001 	li	a3,1
    1244:	96420008 	lhu	v0,8(s2)
    1248:	02021025 	or	v0,s0,v0
    124c:	1000ffe9 	b	11f4 <OSFlagPend+0x2d4>
    1250:	a6420008 	sh	v0,8(s2)
    1254:	8fa40024 	lw	a0,36(sp)
    1258:	1040ffcf 	beqz	v0,1198 <OSFlagPend+0x278>
    125c:	ac820004 	sw	v0,4(a0)
    1260:	1000ffcd 	b	1198 <OSFlagPend+0x278>
    1264:	ac400004 	sw	zero,4(v0)

00001268 <OSFlagPendGetFlagsRdy>:
    1268:	27bdffe0 	addiu	sp,sp,-32
    126c:	afbf001c 	sw	ra,28(sp)
    1270:	afb00018 	sw	s0,24(sp)
    1274:	afa00010 	sw	zero,16(sp)
    1278:	0c001d3c 	jal	74f0 <OS_CPU_SR_Save>
    127c:	00000000 	nop
    1280:	afa20010 	sw	v0,16(sp)
    1284:	8fa40010 	lw	a0,16(sp)
    1288:	8f827b78 	lw	v0,31608(gp)
    128c:	0c001d43 	jal	750c <OS_CPU_SR_Restore>
    1290:	9450002c 	lhu	s0,44(v0)
    1294:	8fbf001c 	lw	ra,28(sp)
    1298:	02001025 	move	v0,s0
    129c:	8fb00018 	lw	s0,24(sp)
    12a0:	03e00008 	jr	ra
    12a4:	27bd0020 	addiu	sp,sp,32

000012a8 <OSFlagPost>:
    12a8:	27bdffd0 	addiu	sp,sp,-48
    12ac:	afbf002c 	sw	ra,44(sp)
    12b0:	afb30028 	sw	s3,40(sp)
    12b4:	afb20024 	sw	s2,36(sp)
    12b8:	afb10020 	sw	s1,32(sp)
    12bc:	afb0001c 	sw	s0,28(sp)
    12c0:	90830000 	lbu	v1,0(a0)
    12c4:	24020005 	li	v0,5
    12c8:	afa00010 	sw	zero,16(sp)
    12cc:	1062000a 	beq	v1,v0,12f8 <OSFlagPost+0x50>
    12d0:	24020001 	li	v0,1
    12d4:	a0e20000 	sb	v0,0(a3)
    12d8:	00001025 	move	v0,zero
    12dc:	8fbf002c 	lw	ra,44(sp)
    12e0:	8fb30028 	lw	s3,40(sp)
    12e4:	8fb20024 	lw	s2,36(sp)
    12e8:	8fb10020 	lw	s1,32(sp)
    12ec:	8fb0001c 	lw	s0,28(sp)
    12f0:	03e00008 	jr	ra
    12f4:	27bd0030 	addiu	sp,sp,48
    12f8:	30b2ffff 	andi	s2,a1,0xffff
    12fc:	30d300ff 	andi	s3,a2,0xff
    1300:	00e08825 	move	s1,a3
    1304:	0c001d3c 	jal	74f0 <OS_CPU_SR_Save>
    1308:	00808025 	move	s0,a0
    130c:	afa20010 	sw	v0,16(sp)
    1310:	1260005a 	beqz	s3,147c <OSFlagPost+0x1d4>
    1314:	24020001 	li	v0,1
    1318:	16620051 	bne	s3,v0,1460 <OSFlagPost+0x1b8>
    131c:	00000000 	nop
    1320:	96050008 	lhu	a1,8(s0)
    1324:	02459025 	or	s2,s2,a1
    1328:	a6120008 	sh	s2,8(s0)
    132c:	8e080004 	lw	t0,4(s0)
    1330:	11000057 	beqz	t0,1490 <OSFlagPost+0x1e8>
    1334:	00009025 	move	s2,zero
    1338:	24090001 	li	t1,1
    133c:	240a0002 	li	t2,2
    1340:	240b0003 	li	t3,3
    1344:	91020012 	lbu	v0,18(t0)
    1348:	1049001e 	beq	v0,t1,13c4 <OSFlagPost+0x11c>
    134c:	00000000 	nop
    1350:	1040003c 	beqz	v0,1444 <OSFlagPost+0x19c>
    1354:	00000000 	nop
    1358:	104a0033 	beq	v0,t2,1428 <OSFlagPost+0x180>
    135c:	00000000 	nop
    1360:	144b0024 	bne	v0,t3,13f4 <OSFlagPost+0x14c>
    1364:	00000000 	nop
    1368:	95050010 	lhu	a1,16(t0)
    136c:	96020008 	lhu	v0,8(s0)
    1370:	00452824 	and	a1,v0,a1
    1374:	14a00019 	bnez	a1,13dc <OSFlagPost+0x134>
    1378:	00000000 	nop
    137c:	8d080000 	lw	t0,0(t0)
    1380:	1500fff0 	bnez	t0,1344 <OSFlagPost+0x9c>
    1384:	00000000 	nop
    1388:	8fa40010 	lw	a0,16(sp)
    138c:	0c001d43 	jal	750c <OS_CPU_SR_Restore>
    1390:	00000000 	nop
    1394:	16400043 	bnez	s2,14a4 <OSFlagPost+0x1fc>
    1398:	00000000 	nop
    139c:	0c001d3c 	jal	74f0 <OS_CPU_SR_Save>
    13a0:	00000000 	nop
    13a4:	afa20010 	sw	v0,16(sp)
    13a8:	96100008 	lhu	s0,8(s0)
    13ac:	8fa40010 	lw	a0,16(sp)
    13b0:	0c001d43 	jal	750c <OS_CPU_SR_Restore>
    13b4:	00000000 	nop
    13b8:	a2200000 	sb	zero,0(s1)
    13bc:	1000ffc7 	b	12dc <OSFlagPost+0x34>
    13c0:	02001025 	move	v0,s0
    13c4:	96020008 	lhu	v0,8(s0)
    13c8:	95050010 	lhu	a1,16(t0)
    13cc:	00021027 	nor	v0,zero,v0
    13d0:	00452824 	and	a1,v0,a1
    13d4:	10a0ffe9 	beqz	a1,137c <OSFlagPost+0xd4>
    13d8:	00000000 	nop
    13dc:	0c000232 	jal	8c8 <OS_FlagTaskRdy>
    13e0:	01002025 	move	a0,t0
    13e4:	1449ffe5 	bne	v0,t1,137c <OSFlagPost+0xd4>
    13e8:	00000000 	nop
    13ec:	1000ffe3 	b	137c <OSFlagPost+0xd4>
    13f0:	24120001 	li	s2,1
    13f4:	8fa40010 	lw	a0,16(sp)
    13f8:	0c001d43 	jal	750c <OS_CPU_SR_Restore>
    13fc:	00000000 	nop
    1400:	2402006f 	li	v0,111
    1404:	a2220000 	sb	v0,0(s1)
    1408:	8fbf002c 	lw	ra,44(sp)
    140c:	8fb30028 	lw	s3,40(sp)
    1410:	8fb20024 	lw	s2,36(sp)
    1414:	8fb10020 	lw	s1,32(sp)
    1418:	8fb0001c 	lw	s0,28(sp)
    141c:	00001025 	move	v0,zero
    1420:	03e00008 	jr	ra
    1424:	27bd0030 	addiu	sp,sp,48
    1428:	95050010 	lhu	a1,16(t0)
    142c:	96020008 	lhu	v0,8(s0)
    1430:	00a21024 	and	v0,a1,v0
    1434:	14a2ffd1 	bne	a1,v0,137c <OSFlagPost+0xd4>
    1438:	00000000 	nop
    143c:	1000ffe7 	b	13dc <OSFlagPost+0x134>
    1440:	00000000 	nop
    1444:	95050010 	lhu	a1,16(t0)
    1448:	96020008 	lhu	v0,8(s0)
    144c:	00a21024 	and	v0,a1,v0
    1450:	1440ffca 	bnez	v0,137c <OSFlagPost+0xd4>
    1454:	00000000 	nop
    1458:	1000ffe0 	b	13dc <OSFlagPost+0x134>
    145c:	00000000 	nop
    1460:	8fa40010 	lw	a0,16(sp)
    1464:	0c001d43 	jal	750c <OS_CPU_SR_Restore>
    1468:	00000000 	nop
    146c:	24020071 	li	v0,113
    1470:	a2220000 	sb	v0,0(s1)
    1474:	1000ff99 	b	12dc <OSFlagPost+0x34>
    1478:	00001025 	move	v0,zero
    147c:	96050008 	lhu	a1,8(s0)
    1480:	00129027 	nor	s2,zero,s2
    1484:	02459024 	and	s2,s2,a1
    1488:	1000ffa8 	b	132c <OSFlagPost+0x84>
    148c:	a6120008 	sh	s2,8(s0)
    1490:	8fa40010 	lw	a0,16(sp)
    1494:	0c001d43 	jal	750c <OS_CPU_SR_Restore>
    1498:	00000000 	nop
    149c:	1000ffbf 	b	139c <OSFlagPost+0xf4>
    14a0:	00000000 	nop
    14a4:	0c001a02 	jal	6808 <OS_Sched>
    14a8:	00000000 	nop
    14ac:	1000ffbb 	b	139c <OSFlagPost+0xf4>
    14b0:	00000000 	nop

000014b4 <OSFlagQuery>:
    14b4:	27bdffd8 	addiu	sp,sp,-40
    14b8:	afbf0024 	sw	ra,36(sp)
    14bc:	afb10020 	sw	s1,32(sp)
    14c0:	afb0001c 	sw	s0,28(sp)
    14c4:	90830000 	lbu	v1,0(a0)
    14c8:	24020005 	li	v0,5
    14cc:	afa00010 	sw	zero,16(sp)
    14d0:	10620008 	beq	v1,v0,14f4 <OSFlagQuery+0x40>
    14d4:	8fbf0024 	lw	ra,36(sp)
    14d8:	24020001 	li	v0,1
    14dc:	8fb10020 	lw	s1,32(sp)
    14e0:	8fb0001c 	lw	s0,28(sp)
    14e4:	a0a20000 	sb	v0,0(a1)
    14e8:	00001025 	move	v0,zero
    14ec:	03e00008 	jr	ra
    14f0:	27bd0028 	addiu	sp,sp,40
    14f4:	00a08825 	move	s1,a1
    14f8:	0c001d3c 	jal	74f0 <OS_CPU_SR_Save>
    14fc:	00808025 	move	s0,a0
    1500:	afa20010 	sw	v0,16(sp)
    1504:	8fa40010 	lw	a0,16(sp)
    1508:	0c001d43 	jal	750c <OS_CPU_SR_Restore>
    150c:	96100008 	lhu	s0,8(s0)
    1510:	a2200000 	sb	zero,0(s1)
    1514:	8fbf0024 	lw	ra,36(sp)
    1518:	02001025 	move	v0,s0
    151c:	8fb10020 	lw	s1,32(sp)
    1520:	8fb0001c 	lw	s0,28(sp)
    1524:	03e00008 	jr	ra
    1528:	27bd0028 	addiu	sp,sp,40

0000152c <OS_FlagInit>:
    152c:	27bdffe8 	addiu	sp,sp,-24
    1530:	afb00010 	sw	s0,16(sp)
    1534:	3c100001 	lui	s0,0x1
    1538:	26048848 	addiu	a0,s0,-30648
    153c:	afbf0014 	sw	ra,20(sp)
    1540:	0c0019e8 	jal	67a0 <OS_MemClr>
    1544:	24050050 	li	a1,80
    1548:	3c020001 	lui	v0,0x1
    154c:	3c040001 	lui	a0,0x1
    1550:	3c030000 	lui	v1,0x0
    1554:	24428858 	addiu	v0,v0,-30632
    1558:	24848898 	addiu	a0,a0,-30568
    155c:	24637a90 	addiu	v1,v1,31376
    1560:	a040fff0 	sb	zero,-16(v0)
    1564:	ac42fff4 	sw	v0,-12(v0)
    1568:	ac43fffc 	sw	v1,-4(v0)
    156c:	24420010 	addiu	v0,v0,16
    1570:	1444fffb 	bne	v0,a0,1560 <OS_FlagInit+0x34>
    1574:	8fbf0014 	lw	ra,20(sp)
    1578:	26028848 	addiu	v0,s0,-30648
    157c:	a0400040 	sb	zero,64(v0)
    1580:	8fb00010 	lw	s0,16(sp)
    1584:	ac400044 	sw	zero,68(v0)
    1588:	ac43004c 	sw	v1,76(v0)
    158c:	af827b88 	sw	v0,31624(gp)
    1590:	03e00008 	jr	ra
    1594:	27bd0018 	addiu	sp,sp,24

00001598 <OS_FlagUnlink>:
    1598:	8c830004 	lw	v1,4(a0)
    159c:	10600007 	beqz	v1,15bc <OS_FlagUnlink+0x24>
    15a0:	8c820000 	lw	v0,0(a0)
    15a4:	10400002 	beqz	v0,15b0 <OS_FlagUnlink+0x18>
    15a8:	ac620000 	sw	v0,0(v1)
    15ac:	ac430004 	sw	v1,4(v0)
    15b0:	8c820008 	lw	v0,8(a0)
    15b4:	03e00008 	jr	ra
    15b8:	ac400028 	sw	zero,40(v0)
    15bc:	8c83000c 	lw	v1,12(a0)
    15c0:	1040fffb 	beqz	v0,15b0 <OS_FlagUnlink+0x18>
    15c4:	ac620004 	sw	v0,4(v1)
    15c8:	ac400004 	sw	zero,4(v0)
    15cc:	8c820008 	lw	v0,8(a0)
    15d0:	03e00008 	jr	ra
    15d4:	ac400028 	sw	zero,40(v0)

000015d8 <OSMboxAccept>:
    15d8:	27bdffd8 	addiu	sp,sp,-40
    15dc:	afbf0024 	sw	ra,36(sp)
    15e0:	afb10020 	sw	s1,32(sp)
    15e4:	afb0001c 	sw	s0,28(sp)
    15e8:	90830000 	lbu	v1,0(a0)
    15ec:	24020001 	li	v0,1
    15f0:	afa00010 	sw	zero,16(sp)
    15f4:	1462000e 	bne	v1,v0,1630 <OSMboxAccept+0x58>
    15f8:	8fbf0024 	lw	ra,36(sp)
    15fc:	0c001d3c 	jal	74f0 <OS_CPU_SR_Save>
    1600:	00808025 	move	s0,a0
    1604:	afa20010 	sw	v0,16(sp)
    1608:	8fa40010 	lw	a0,16(sp)
    160c:	8e110004 	lw	s1,4(s0)
    1610:	0c001d43 	jal	750c <OS_CPU_SR_Restore>
    1614:	ae000004 	sw	zero,4(s0)
    1618:	8fbf0024 	lw	ra,36(sp)
    161c:	02201025 	move	v0,s1
    1620:	8fb0001c 	lw	s0,28(sp)
    1624:	8fb10020 	lw	s1,32(sp)
    1628:	03e00008 	jr	ra
    162c:	27bd0028 	addiu	sp,sp,40
    1630:	8fb10020 	lw	s1,32(sp)
    1634:	8fb0001c 	lw	s0,28(sp)
    1638:	00001025 	move	v0,zero
    163c:	03e00008 	jr	ra
    1640:	27bd0028 	addiu	sp,sp,40

00001644 <OSMboxCreate>:
    1644:	93827b74 	lbu	v0,31604(gp)
    1648:	27bdffd8 	addiu	sp,sp,-40
    164c:	afbf0024 	sw	ra,36(sp)
    1650:	afb10020 	sw	s1,32(sp)
    1654:	afb0001c 	sw	s0,28(sp)
    1658:	afa00010 	sw	zero,16(sp)
    165c:	1440001d 	bnez	v0,16d4 <OSMboxCreate+0x90>
    1660:	8fbf0024 	lw	ra,36(sp)
    1664:	0c001d3c 	jal	74f0 <OS_CPU_SR_Save>
    1668:	00808825 	move	s1,a0
    166c:	8f907b70 	lw	s0,31600(gp)
    1670:	afa20010 	sw	v0,16(sp)
    1674:	8fa40010 	lw	a0,16(sp)
    1678:	12000013 	beqz	s0,16c8 <OSMboxCreate+0x84>
    167c:	00000000 	nop
    1680:	8e020004 	lw	v0,4(s0)
    1684:	0c001d43 	jal	750c <OS_CPU_SR_Restore>
    1688:	af827b70 	sw	v0,31600(gp)
    168c:	24020001 	li	v0,1
    1690:	a2020000 	sb	v0,0(s0)
    1694:	3c020000 	lui	v0,0x0
    1698:	24427a90 	addiu	v0,v0,31376
    169c:	ae110004 	sw	s1,4(s0)
    16a0:	ae020014 	sw	v0,20(s0)
    16a4:	a6000008 	sh	zero,8(s0)
    16a8:	0c0019df 	jal	677c <OS_EventWaitListInit>
    16ac:	02002025 	move	a0,s0
    16b0:	8fbf0024 	lw	ra,36(sp)
    16b4:	02001025 	move	v0,s0
    16b8:	8fb10020 	lw	s1,32(sp)
    16bc:	8fb0001c 	lw	s0,28(sp)
    16c0:	03e00008 	jr	ra
    16c4:	27bd0028 	addiu	sp,sp,40
    16c8:	0c001d43 	jal	750c <OS_CPU_SR_Restore>
    16cc:	00000000 	nop
    16d0:	8fbf0024 	lw	ra,36(sp)
    16d4:	8fb10020 	lw	s1,32(sp)
    16d8:	8fb0001c 	lw	s0,28(sp)
    16dc:	00001025 	move	v0,zero
    16e0:	03e00008 	jr	ra
    16e4:	27bd0028 	addiu	sp,sp,40

000016e8 <OSMboxDel>:
    16e8:	27bdffd0 	addiu	sp,sp,-48
    16ec:	afb20024 	sw	s2,36(sp)
    16f0:	afb0001c 	sw	s0,28(sp)
    16f4:	afbf002c 	sw	ra,44(sp)
    16f8:	afb30028 	sw	s3,40(sp)
    16fc:	afb10020 	sw	s1,32(sp)
    1700:	90910000 	lbu	s1,0(a0)
    1704:	24020001 	li	v0,1
    1708:	00808025 	move	s0,a0
    170c:	00c09025 	move	s2,a2
    1710:	afa00010 	sw	zero,16(sp)
    1714:	1222000a 	beq	s1,v0,1740 <OSMboxDel+0x58>
    1718:	00000000 	nop
    171c:	a2420000 	sb	v0,0(s2)
    1720:	8fbf002c 	lw	ra,44(sp)
    1724:	02001025 	move	v0,s0
    1728:	8fb30028 	lw	s3,40(sp)
    172c:	8fb20024 	lw	s2,36(sp)
    1730:	8fb10020 	lw	s1,32(sp)
    1734:	8fb0001c 	lw	s0,28(sp)
    1738:	03e00008 	jr	ra
    173c:	27bd0030 	addiu	sp,sp,48
    1740:	93827b74 	lbu	v0,31604(gp)
    1744:	1040000a 	beqz	v0,1770 <OSMboxDel+0x88>
    1748:	2402000f 	li	v0,15
    174c:	a0c20000 	sb	v0,0(a2)
    1750:	8fbf002c 	lw	ra,44(sp)
    1754:	02001025 	move	v0,s0
    1758:	8fb30028 	lw	s3,40(sp)
    175c:	8fb20024 	lw	s2,36(sp)
    1760:	8fb10020 	lw	s1,32(sp)
    1764:	8fb0001c 	lw	s0,28(sp)
    1768:	03e00008 	jr	ra
    176c:	27bd0030 	addiu	sp,sp,48
    1770:	0c001d3c 	jal	74f0 <OS_CPU_SR_Save>
    1774:	30b300ff 	andi	s3,a1,0xff
    1778:	9203000a 	lbu	v1,10(s0)
    177c:	afa20010 	sw	v0,16(sp)
    1780:	10600008 	beqz	v1,17a4 <OSMboxDel+0xbc>
    1784:	00000000 	nop
    1788:	1660001f 	bnez	s3,1808 <OSMboxDel+0x120>
    178c:	00000000 	nop
    1790:	8fa40010 	lw	a0,16(sp)
    1794:	0c001d43 	jal	750c <OS_CPU_SR_Restore>
    1798:	00000000 	nop
    179c:	1000ffdf 	b	171c <OSMboxDel+0x34>
    17a0:	24020049 	li	v0,73
    17a4:	12600027 	beqz	s3,1844 <OSMboxDel+0x15c>
    17a8:	3c020000 	lui	v0,0x0
    17ac:	16710010 	bne	s3,s1,17f0 <OSMboxDel+0x108>
    17b0:	00008825 	move	s1,zero
    17b4:	3c020000 	lui	v0,0x0
    17b8:	a2000000 	sb	zero,0(s0)
    17bc:	24427a90 	addiu	v0,v0,31376
    17c0:	ae020014 	sw	v0,20(s0)
    17c4:	8f827b70 	lw	v0,31600(gp)
    17c8:	8fa40010 	lw	a0,16(sp)
    17cc:	ae020004 	sw	v0,4(s0)
    17d0:	a6000008 	sh	zero,8(s0)
    17d4:	0c001d43 	jal	750c <OS_CPU_SR_Restore>
    17d8:	af907b70 	sw	s0,31600(gp)
    17dc:	16200015 	bnez	s1,1834 <OSMboxDel+0x14c>
    17e0:	00000000 	nop
    17e4:	a2400000 	sb	zero,0(s2)
    17e8:	1000ffcd 	b	1720 <OSMboxDel+0x38>
    17ec:	00008025 	move	s0,zero
    17f0:	8fa40010 	lw	a0,16(sp)
    17f4:	0c001d43 	jal	750c <OS_CPU_SR_Restore>
    17f8:	00000000 	nop
    17fc:	24020007 	li	v0,7
    1800:	1000ffc7 	b	1720 <OSMboxDel+0x38>
    1804:	a2420000 	sb	v0,0(s2)
    1808:	1671fff9 	bne	s3,s1,17f0 <OSMboxDel+0x108>
    180c:	00003825 	move	a3,zero
    1810:	24060002 	li	a2,2
    1814:	00002825 	move	a1,zero
    1818:	0c001924 	jal	6490 <OS_EventTaskRdy>
    181c:	02002025 	move	a0,s0
    1820:	9202000a 	lbu	v0,10(s0)
    1824:	1440fffa 	bnez	v0,1810 <OSMboxDel+0x128>
    1828:	00003825 	move	a3,zero
    182c:	1000ffe1 	b	17b4 <OSMboxDel+0xcc>
    1830:	24110001 	li	s1,1
    1834:	0c001a02 	jal	6808 <OS_Sched>
    1838:	00008025 	move	s0,zero
    183c:	1000ffb8 	b	1720 <OSMboxDel+0x38>
    1840:	a2400000 	sb	zero,0(s2)
    1844:	a2000000 	sb	zero,0(s0)
    1848:	24427a90 	addiu	v0,v0,31376
    184c:	ae020014 	sw	v0,20(s0)
    1850:	8f827b70 	lw	v0,31600(gp)
    1854:	8fa40010 	lw	a0,16(sp)
    1858:	ae020004 	sw	v0,4(s0)
    185c:	a6000008 	sh	zero,8(s0)
    1860:	0c001d43 	jal	750c <OS_CPU_SR_Restore>
    1864:	af907b70 	sw	s0,31600(gp)
    1868:	00008025 	move	s0,zero
    186c:	1000ffac 	b	1720 <OSMboxDel+0x38>
    1870:	a2400000 	sb	zero,0(s2)

00001874 <OSMboxPend>:
    1874:	27bdffd0 	addiu	sp,sp,-48
    1878:	afbf002c 	sw	ra,44(sp)
    187c:	afb30028 	sw	s3,40(sp)
    1880:	afb20024 	sw	s2,36(sp)
    1884:	afb10020 	sw	s1,32(sp)
    1888:	afb0001c 	sw	s0,28(sp)
    188c:	90830000 	lbu	v1,0(a0)
    1890:	24020001 	li	v0,1
    1894:	afa00010 	sw	zero,16(sp)
    1898:	1462001a 	bne	v1,v0,1904 <OSMboxPend+0x90>
    189c:	00000000 	nop
    18a0:	93827b74 	lbu	v0,31604(gp)
    18a4:	14400016 	bnez	v0,1900 <OSMboxPend+0x8c>
    18a8:	93827b28 	lbu	v0,31528(gp)
    18ac:	14400047 	bnez	v0,19cc <OSMboxPend+0x158>
    18b0:	00808025 	move	s0,a0
    18b4:	00c09825 	move	s3,a2
    18b8:	0c001d3c 	jal	74f0 <OS_CPU_SR_Save>
    18bc:	00a09025 	move	s2,a1
    18c0:	8e110004 	lw	s1,4(s0)
    18c4:	afa20010 	sw	v0,16(sp)
    18c8:	12200017 	beqz	s1,1928 <OSMboxPend+0xb4>
    18cc:	8f827b78 	lw	v0,31608(gp)
    18d0:	8fa40010 	lw	a0,16(sp)
    18d4:	0c001d43 	jal	750c <OS_CPU_SR_Restore>
    18d8:	ae000004 	sw	zero,4(s0)
    18dc:	a2600000 	sb	zero,0(s3)
    18e0:	8fbf002c 	lw	ra,44(sp)
    18e4:	02201025 	move	v0,s1
    18e8:	8fb30028 	lw	s3,40(sp)
    18ec:	8fb20024 	lw	s2,36(sp)
    18f0:	8fb10020 	lw	s1,32(sp)
    18f4:	8fb0001c 	lw	s0,28(sp)
    18f8:	03e00008 	jr	ra
    18fc:	27bd0030 	addiu	sp,sp,48
    1900:	24020002 	li	v0,2
    1904:	8fbf002c 	lw	ra,44(sp)
    1908:	8fb30028 	lw	s3,40(sp)
    190c:	8fb20024 	lw	s2,36(sp)
    1910:	8fb10020 	lw	s1,32(sp)
    1914:	8fb0001c 	lw	s0,28(sp)
    1918:	a0c20000 	sb	v0,0(a2)
    191c:	00001025 	move	v0,zero
    1920:	03e00008 	jr	ra
    1924:	27bd0030 	addiu	sp,sp,48
    1928:	02002025 	move	a0,s0
    192c:	90430034 	lbu	v1,52(v0)
    1930:	ac520030 	sw	s2,48(v0)
    1934:	34630002 	ori	v1,v1,0x2
    1938:	a0430034 	sb	v1,52(v0)
    193c:	0c001979 	jal	65e4 <OS_EventTaskWait>
    1940:	a0400035 	sb	zero,53(v0)
    1944:	8fa40010 	lw	a0,16(sp)
    1948:	0c001d43 	jal	750c <OS_CPU_SR_Restore>
    194c:	00000000 	nop
    1950:	0c001a02 	jal	6808 <OS_Sched>
    1954:	00000000 	nop
    1958:	0c001d3c 	jal	74f0 <OS_CPU_SR_Save>
    195c:	00000000 	nop
    1960:	8f847b78 	lw	a0,31608(gp)
    1964:	afa20010 	sw	v0,16(sp)
    1968:	90820035 	lbu	v0,53(a0)
    196c:	10400023 	beqz	v0,19fc <OSMboxPend+0x188>
    1970:	24030002 	li	v1,2
    1974:	1043001f 	beq	v0,v1,19f4 <OSMboxPend+0x180>
    1978:	2402000e 	li	v0,14
    197c:	0c0019ba 	jal	66e8 <OS_EventTaskRemove>
    1980:	02002825 	move	a1,s0
    1984:	2402000a 	li	v0,10
    1988:	a2620000 	sb	v0,0(s3)
    198c:	8f827b78 	lw	v0,31608(gp)
    1990:	8fa40010 	lw	a0,16(sp)
    1994:	a0400034 	sb	zero,52(v0)
    1998:	a0400035 	sb	zero,53(v0)
    199c:	ac40001c 	sw	zero,28(v0)
    19a0:	ac400020 	sw	zero,32(v0)
    19a4:	0c001d43 	jal	750c <OS_CPU_SR_Restore>
    19a8:	ac400024 	sw	zero,36(v0)
    19ac:	8fbf002c 	lw	ra,44(sp)
    19b0:	02201025 	move	v0,s1
    19b4:	8fb30028 	lw	s3,40(sp)
    19b8:	8fb20024 	lw	s2,36(sp)
    19bc:	8fb10020 	lw	s1,32(sp)
    19c0:	8fb0001c 	lw	s0,28(sp)
    19c4:	03e00008 	jr	ra
    19c8:	27bd0030 	addiu	sp,sp,48
    19cc:	8fbf002c 	lw	ra,44(sp)
    19d0:	2402000d 	li	v0,13
    19d4:	8fb30028 	lw	s3,40(sp)
    19d8:	8fb20024 	lw	s2,36(sp)
    19dc:	8fb10020 	lw	s1,32(sp)
    19e0:	8fb0001c 	lw	s0,28(sp)
    19e4:	a0c20000 	sb	v0,0(a2)
    19e8:	00001025 	move	v0,zero
    19ec:	03e00008 	jr	ra
    19f0:	27bd0030 	addiu	sp,sp,48
    19f4:	1000ffe5 	b	198c <OSMboxPend+0x118>
    19f8:	a2620000 	sb	v0,0(s3)
    19fc:	8c910024 	lw	s1,36(a0)
    1a00:	1000ffe2 	b	198c <OSMboxPend+0x118>
    1a04:	a2600000 	sb	zero,0(s3)

00001a08 <OSMboxPendAbort>:
    1a08:	27bdffc8 	addiu	sp,sp,-56
    1a0c:	afbf0034 	sw	ra,52(sp)
    1a10:	afb30030 	sw	s3,48(sp)
    1a14:	afb2002c 	sw	s2,44(sp)
    1a18:	afb10028 	sw	s1,40(sp)
    1a1c:	afb00024 	sw	s0,36(sp)
    1a20:	90900000 	lbu	s0,0(a0)
    1a24:	24020001 	li	v0,1
    1a28:	afa00010 	sw	zero,16(sp)
    1a2c:	1202000a 	beq	s0,v0,1a58 <OSMboxPendAbort+0x50>
    1a30:	00808825 	move	s1,a0
    1a34:	a0c20000 	sb	v0,0(a2)
    1a38:	00001025 	move	v0,zero
    1a3c:	8fbf0034 	lw	ra,52(sp)
    1a40:	8fb30030 	lw	s3,48(sp)
    1a44:	8fb2002c 	lw	s2,44(sp)
    1a48:	8fb10028 	lw	s1,40(sp)
    1a4c:	8fb00024 	lw	s0,36(sp)
    1a50:	03e00008 	jr	ra
    1a54:	27bd0038 	addiu	sp,sp,56
    1a58:	30b300ff 	andi	s3,a1,0xff
    1a5c:	0c001d3c 	jal	74f0 <OS_CPU_SR_Save>
    1a60:	00c09025 	move	s2,a2
    1a64:	00401825 	move	v1,v0
    1a68:	9222000a 	lbu	v0,10(s1)
    1a6c:	afa30010 	sw	v1,16(sp)
    1a70:	1040001c 	beqz	v0,1ae4 <OSMboxPendAbort+0xdc>
    1a74:	00000000 	nop
    1a78:	16700020 	bne	s3,s0,1afc <OSMboxPendAbort+0xf4>
    1a7c:	24070002 	li	a3,2
    1a80:	00008025 	move	s0,zero
    1a84:	24070002 	li	a3,2
    1a88:	24060002 	li	a2,2
    1a8c:	00002825 	move	a1,zero
    1a90:	0c001924 	jal	6490 <OS_EventTaskRdy>
    1a94:	02202025 	move	a0,s1
    1a98:	9223000a 	lbu	v1,10(s1)
    1a9c:	26020001 	addiu	v0,s0,1
    1aa0:	1460fff8 	bnez	v1,1a84 <OSMboxPendAbort+0x7c>
    1aa4:	305000ff 	andi	s0,v0,0xff
    1aa8:	8fa40010 	lw	a0,16(sp)
    1aac:	0c001d43 	jal	750c <OS_CPU_SR_Restore>
    1ab0:	00000000 	nop
    1ab4:	0c001a02 	jal	6808 <OS_Sched>
    1ab8:	00000000 	nop
    1abc:	2402000e 	li	v0,14
    1ac0:	a2420000 	sb	v0,0(s2)
    1ac4:	8fbf0034 	lw	ra,52(sp)
    1ac8:	02001025 	move	v0,s0
    1acc:	8fb30030 	lw	s3,48(sp)
    1ad0:	8fb2002c 	lw	s2,44(sp)
    1ad4:	8fb10028 	lw	s1,40(sp)
    1ad8:	8fb00024 	lw	s0,36(sp)
    1adc:	03e00008 	jr	ra
    1ae0:	27bd0038 	addiu	sp,sp,56
    1ae4:	8fa40010 	lw	a0,16(sp)
    1ae8:	0c001d43 	jal	750c <OS_CPU_SR_Restore>
    1aec:	afa20018 	sw	v0,24(sp)
    1af0:	a2400000 	sb	zero,0(s2)
    1af4:	1000ffd1 	b	1a3c <OSMboxPendAbort+0x34>
    1af8:	8fa20018 	lw	v0,24(sp)
    1afc:	24060002 	li	a2,2
    1b00:	00002825 	move	a1,zero
    1b04:	0c001924 	jal	6490 <OS_EventTaskRdy>
    1b08:	02202025 	move	a0,s1
    1b0c:	1000ffe6 	b	1aa8 <OSMboxPendAbort+0xa0>
    1b10:	24100001 	li	s0,1

00001b14 <OSMboxPost>:
    1b14:	27bdffd0 	addiu	sp,sp,-48
    1b18:	afbf002c 	sw	ra,44(sp)
    1b1c:	afb10028 	sw	s1,40(sp)
    1b20:	afb00024 	sw	s0,36(sp)
    1b24:	90830000 	lbu	v1,0(a0)
    1b28:	24020001 	li	v0,1
    1b2c:	afa00010 	sw	zero,16(sp)
    1b30:	10620006 	beq	v1,v0,1b4c <OSMboxPost+0x38>
    1b34:	24020001 	li	v0,1
    1b38:	8fbf002c 	lw	ra,44(sp)
    1b3c:	8fb10028 	lw	s1,40(sp)
    1b40:	8fb00024 	lw	s0,36(sp)
    1b44:	03e00008 	jr	ra
    1b48:	27bd0030 	addiu	sp,sp,48
    1b4c:	00808025 	move	s0,a0
    1b50:	0c001d3c 	jal	74f0 <OS_CPU_SR_Save>
    1b54:	00a08825 	move	s1,a1
    1b58:	00401825 	move	v1,v0
    1b5c:	9202000a 	lbu	v0,10(s0)
    1b60:	afa30010 	sw	v1,16(sp)
    1b64:	1440000d 	bnez	v0,1b9c <OSMboxPost+0x88>
    1b68:	00003825 	move	a3,zero
    1b6c:	8e030004 	lw	v1,4(s0)
    1b70:	10600015 	beqz	v1,1bc8 <OSMboxPost+0xb4>
    1b74:	00000000 	nop
    1b78:	8fa40010 	lw	a0,16(sp)
    1b7c:	0c001d43 	jal	750c <OS_CPU_SR_Restore>
    1b80:	00000000 	nop
    1b84:	8fbf002c 	lw	ra,44(sp)
    1b88:	8fb10028 	lw	s1,40(sp)
    1b8c:	8fb00024 	lw	s0,36(sp)
    1b90:	24020014 	li	v0,20
    1b94:	03e00008 	jr	ra
    1b98:	27bd0030 	addiu	sp,sp,48
    1b9c:	24060002 	li	a2,2
    1ba0:	02202825 	move	a1,s1
    1ba4:	0c001924 	jal	6490 <OS_EventTaskRdy>
    1ba8:	02002025 	move	a0,s0
    1bac:	8fa40010 	lw	a0,16(sp)
    1bb0:	0c001d43 	jal	750c <OS_CPU_SR_Restore>
    1bb4:	00000000 	nop
    1bb8:	0c001a02 	jal	6808 <OS_Sched>
    1bbc:	00000000 	nop
    1bc0:	1000ffdd 	b	1b38 <OSMboxPost+0x24>
    1bc4:	00001025 	move	v0,zero
    1bc8:	8fa40010 	lw	a0,16(sp)
    1bcc:	ae110004 	sw	s1,4(s0)
    1bd0:	0c001d43 	jal	750c <OS_CPU_SR_Restore>
    1bd4:	afa20018 	sw	v0,24(sp)
    1bd8:	1000ffd7 	b	1b38 <OSMboxPost+0x24>
    1bdc:	8fa20018 	lw	v0,24(sp)

00001be0 <OSMboxPostOpt>:
    1be0:	27bdffd0 	addiu	sp,sp,-48
    1be4:	afbf002c 	sw	ra,44(sp)
    1be8:	afb20028 	sw	s2,40(sp)
    1bec:	afb10024 	sw	s1,36(sp)
    1bf0:	afb00020 	sw	s0,32(sp)
    1bf4:	90830000 	lbu	v1,0(a0)
    1bf8:	24020001 	li	v0,1
    1bfc:	afa00010 	sw	zero,16(sp)
    1c00:	10620007 	beq	v1,v0,1c20 <OSMboxPostOpt+0x40>
    1c04:	24020001 	li	v0,1
    1c08:	8fbf002c 	lw	ra,44(sp)
    1c0c:	8fb20028 	lw	s2,40(sp)
    1c10:	8fb10024 	lw	s1,36(sp)
    1c14:	8fb00020 	lw	s0,32(sp)
    1c18:	03e00008 	jr	ra
    1c1c:	27bd0030 	addiu	sp,sp,48
    1c20:	00808025 	move	s0,a0
    1c24:	30d200ff 	andi	s2,a2,0xff
    1c28:	0c001d3c 	jal	74f0 <OS_CPU_SR_Save>
    1c2c:	00a08825 	move	s1,a1
    1c30:	00401825 	move	v1,v0
    1c34:	9202000a 	lbu	v0,10(s0)
    1c38:	afa30010 	sw	v1,16(sp)
    1c3c:	10400014 	beqz	v0,1c90 <OSMboxPostOpt+0xb0>
    1c40:	00000000 	nop
    1c44:	32420001 	andi	v0,s2,0x1
    1c48:	10400019 	beqz	v0,1cb0 <OSMboxPostOpt+0xd0>
    1c4c:	00003825 	move	a3,zero
    1c50:	24060002 	li	a2,2
    1c54:	02202825 	move	a1,s1
    1c58:	0c001924 	jal	6490 <OS_EventTaskRdy>
    1c5c:	02002025 	move	a0,s0
    1c60:	9202000a 	lbu	v0,10(s0)
    1c64:	1440fffa 	bnez	v0,1c50 <OSMboxPostOpt+0x70>
    1c68:	00003825 	move	a3,zero
    1c6c:	8fa40010 	lw	a0,16(sp)
    1c70:	0c001d43 	jal	750c <OS_CPU_SR_Restore>
    1c74:	00000000 	nop
    1c78:	32420004 	andi	v0,s2,0x4
    1c7c:	304200ff 	andi	v0,v0,0xff
    1c80:	10400011 	beqz	v0,1cc8 <OSMboxPostOpt+0xe8>
    1c84:	00000000 	nop
    1c88:	1000ffdf 	b	1c08 <OSMboxPostOpt+0x28>
    1c8c:	00001025 	move	v0,zero
    1c90:	8e030004 	lw	v1,4(s0)
    1c94:	10600010 	beqz	v1,1cd8 <OSMboxPostOpt+0xf8>
    1c98:	00000000 	nop
    1c9c:	8fa40010 	lw	a0,16(sp)
    1ca0:	0c001d43 	jal	750c <OS_CPU_SR_Restore>
    1ca4:	00000000 	nop
    1ca8:	1000ffd7 	b	1c08 <OSMboxPostOpt+0x28>
    1cac:	24020014 	li	v0,20
    1cb0:	24060002 	li	a2,2
    1cb4:	02202825 	move	a1,s1
    1cb8:	0c001924 	jal	6490 <OS_EventTaskRdy>
    1cbc:	02002025 	move	a0,s0
    1cc0:	1000ffea 	b	1c6c <OSMboxPostOpt+0x8c>
    1cc4:	00000000 	nop
    1cc8:	0c001a02 	jal	6808 <OS_Sched>
    1ccc:	afa20018 	sw	v0,24(sp)
    1cd0:	1000ffcd 	b	1c08 <OSMboxPostOpt+0x28>
    1cd4:	8fa20018 	lw	v0,24(sp)
    1cd8:	8fa40010 	lw	a0,16(sp)
    1cdc:	ae110004 	sw	s1,4(s0)
    1ce0:	0c001d43 	jal	750c <OS_CPU_SR_Restore>
    1ce4:	afa20018 	sw	v0,24(sp)
    1ce8:	1000ffc7 	b	1c08 <OSMboxPostOpt+0x28>
    1cec:	8fa20018 	lw	v0,24(sp)

00001cf0 <OSMboxQuery>:
    1cf0:	27bdffd8 	addiu	sp,sp,-40
    1cf4:	afbf0024 	sw	ra,36(sp)
    1cf8:	afb10020 	sw	s1,32(sp)
    1cfc:	afb0001c 	sw	s0,28(sp)
    1d00:	90830000 	lbu	v1,0(a0)
    1d04:	24020001 	li	v0,1
    1d08:	afa00010 	sw	zero,16(sp)
    1d0c:	10620006 	beq	v1,v0,1d28 <OSMboxQuery+0x38>
    1d10:	8fbf0024 	lw	ra,36(sp)
    1d14:	8fb10020 	lw	s1,32(sp)
    1d18:	8fb0001c 	lw	s0,28(sp)
    1d1c:	24020001 	li	v0,1
    1d20:	03e00008 	jr	ra
    1d24:	27bd0028 	addiu	sp,sp,40
    1d28:	00808025 	move	s0,a0
    1d2c:	0c001d3c 	jal	74f0 <OS_CPU_SR_Save>
    1d30:	00a08825 	move	s1,a1
    1d34:	9203000a 	lbu	v1,10(s0)
    1d38:	afa20010 	sw	v0,16(sp)
    1d3c:	a223000c 	sb	v1,12(s1)
    1d40:	2602000b 	addiu	v0,s0,11
    1d44:	26230004 	addiu	v1,s1,4
    1d48:	26050013 	addiu	a1,s0,19
    1d4c:	24420001 	addiu	v0,v0,1
    1d50:	9044ffff 	lbu	a0,-1(v0)
    1d54:	24630001 	addiu	v1,v1,1
    1d58:	14a2fffc 	bne	a1,v0,1d4c <OSMboxQuery+0x5c>
    1d5c:	a064ffff 	sb	a0,-1(v1)
    1d60:	8e020004 	lw	v0,4(s0)
    1d64:	8fa40010 	lw	a0,16(sp)
    1d68:	0c001d43 	jal	750c <OS_CPU_SR_Restore>
    1d6c:	ae220000 	sw	v0,0(s1)
    1d70:	8fbf0024 	lw	ra,36(sp)
    1d74:	8fb10020 	lw	s1,32(sp)
    1d78:	8fb0001c 	lw	s0,28(sp)
    1d7c:	00001025 	move	v0,zero
    1d80:	03e00008 	jr	ra
    1d84:	27bd0028 	addiu	sp,sp,40

00001d88 <OSMemCreate>:
    1d88:	27bdffd0 	addiu	sp,sp,-48
    1d8c:	afb40028 	sw	s4,40(sp)
    1d90:	afb30024 	sw	s3,36(sp)
    1d94:	afb20020 	sw	s2,32(sp)
    1d98:	afb1001c 	sw	s1,28(sp)
    1d9c:	afb00018 	sw	s0,24(sp)
    1da0:	00809025 	move	s2,a0
    1da4:	afbf002c 	sw	ra,44(sp)
    1da8:	00a0a025 	move	s4,a1
    1dac:	00c08025 	move	s0,a2
    1db0:	00e09825 	move	s3,a3
    1db4:	afa00010 	sw	zero,16(sp)
    1db8:	0c001d3c 	jal	74f0 <OS_CPU_SR_Save>
    1dbc:	00000000 	nop
    1dc0:	8f917b58 	lw	s1,31576(gp)
    1dc4:	afa20010 	sw	v0,16(sp)
    1dc8:	8fa40010 	lw	a0,16(sp)
    1dcc:	1220001f 	beqz	s1,1e4c <OSMemCreate+0xc4>
    1dd0:	00000000 	nop
    1dd4:	8e220004 	lw	v0,4(s1)
    1dd8:	0c001d43 	jal	750c <OS_CPU_SR_Restore>
    1ddc:	af827b58 	sw	v0,31576(gp)
    1de0:	2687ffff 	addiu	a3,s4,-1
    1de4:	10e00026 	beqz	a3,1e80 <OSMemCreate+0xf8>
    1de8:	00001025 	move	v0,zero
    1dec:	02401825 	move	v1,s2
    1df0:	00702021 	addu	a0,v1,s0
    1df4:	24420001 	addiu	v0,v0,1
    1df8:	ac640000 	sw	a0,0(v1)
    1dfc:	14e2fffc 	bne	a3,v0,1df0 <OSMemCreate+0x68>
    1e00:	00801825 	move	v1,a0
    1e04:	70f01002 	mul	v0,a3,s0
    1e08:	00523821 	addu	a3,v0,s2
    1e0c:	ace00000 	sw	zero,0(a3)
    1e10:	ae320000 	sw	s2,0(s1)
    1e14:	ae320004 	sw	s2,4(s1)
    1e18:	ae340010 	sw	s4,16(s1)
    1e1c:	ae34000c 	sw	s4,12(s1)
    1e20:	ae300008 	sw	s0,8(s1)
    1e24:	a2600000 	sb	zero,0(s3)
    1e28:	8fbf002c 	lw	ra,44(sp)
    1e2c:	02201025 	move	v0,s1
    1e30:	8fb40028 	lw	s4,40(sp)
    1e34:	8fb30024 	lw	s3,36(sp)
    1e38:	8fb20020 	lw	s2,32(sp)
    1e3c:	8fb1001c 	lw	s1,28(sp)
    1e40:	8fb00018 	lw	s0,24(sp)
    1e44:	03e00008 	jr	ra
    1e48:	27bd0030 	addiu	sp,sp,48
    1e4c:	0c001d43 	jal	750c <OS_CPU_SR_Restore>
    1e50:	00000000 	nop
    1e54:	2402005a 	li	v0,90
    1e58:	a2620000 	sb	v0,0(s3)
    1e5c:	8fbf002c 	lw	ra,44(sp)
    1e60:	8fb40028 	lw	s4,40(sp)
    1e64:	8fb30024 	lw	s3,36(sp)
    1e68:	8fb20020 	lw	s2,32(sp)
    1e6c:	8fb1001c 	lw	s1,28(sp)
    1e70:	8fb00018 	lw	s0,24(sp)
    1e74:	00001025 	move	v0,zero
    1e78:	03e00008 	jr	ra
    1e7c:	27bd0030 	addiu	sp,sp,48
    1e80:	1000ffe2 	b	1e0c <OSMemCreate+0x84>
    1e84:	02403825 	move	a3,s2

00001e88 <OSMemGet>:
    1e88:	27bdffd8 	addiu	sp,sp,-40
    1e8c:	afb1001c 	sw	s1,28(sp)
    1e90:	00808825 	move	s1,a0
    1e94:	afb20020 	sw	s2,32(sp)
    1e98:	afbf0024 	sw	ra,36(sp)
    1e9c:	afb00018 	sw	s0,24(sp)
    1ea0:	00a09025 	move	s2,a1
    1ea4:	afa00010 	sw	zero,16(sp)
    1ea8:	0c001d3c 	jal	74f0 <OS_CPU_SR_Save>
    1eac:	00000000 	nop
    1eb0:	8e230010 	lw	v1,16(s1)
    1eb4:	afa20010 	sw	v0,16(sp)
    1eb8:	10600010 	beqz	v1,1efc <OSMemGet+0x74>
    1ebc:	00000000 	nop
    1ec0:	8e300004 	lw	s0,4(s1)
    1ec4:	8fa40010 	lw	a0,16(sp)
    1ec8:	8e020000 	lw	v0,0(s0)
    1ecc:	2463ffff 	addiu	v1,v1,-1
    1ed0:	ae220004 	sw	v0,4(s1)
    1ed4:	0c001d43 	jal	750c <OS_CPU_SR_Restore>
    1ed8:	ae230010 	sw	v1,16(s1)
    1edc:	a2400000 	sb	zero,0(s2)
    1ee0:	8fbf0024 	lw	ra,36(sp)
    1ee4:	02001025 	move	v0,s0
    1ee8:	8fb20020 	lw	s2,32(sp)
    1eec:	8fb1001c 	lw	s1,28(sp)
    1ef0:	8fb00018 	lw	s0,24(sp)
    1ef4:	03e00008 	jr	ra
    1ef8:	27bd0028 	addiu	sp,sp,40
    1efc:	8fa40010 	lw	a0,16(sp)
    1f00:	0c001d43 	jal	750c <OS_CPU_SR_Restore>
    1f04:	00000000 	nop
    1f08:	2402005d 	li	v0,93
    1f0c:	a2420000 	sb	v0,0(s2)
    1f10:	8fbf0024 	lw	ra,36(sp)
    1f14:	8fb20020 	lw	s2,32(sp)
    1f18:	8fb1001c 	lw	s1,28(sp)
    1f1c:	8fb00018 	lw	s0,24(sp)
    1f20:	00001025 	move	v0,zero
    1f24:	03e00008 	jr	ra
    1f28:	27bd0028 	addiu	sp,sp,40

00001f2c <OSMemNameGet>:
    1f2c:	93827b74 	lbu	v0,31604(gp)
    1f30:	27bdffd8 	addiu	sp,sp,-40
    1f34:	afbf0024 	sw	ra,36(sp)
    1f38:	afb20020 	sw	s2,32(sp)
    1f3c:	afb1001c 	sw	s1,28(sp)
    1f40:	afb00018 	sw	s0,24(sp)
    1f44:	afa00010 	sw	zero,16(sp)
    1f48:	10400009 	beqz	v0,1f70 <OSMemNameGet+0x44>
    1f4c:	8fbf0024 	lw	ra,36(sp)
    1f50:	24020011 	li	v0,17
    1f54:	8fb20020 	lw	s2,32(sp)
    1f58:	8fb1001c 	lw	s1,28(sp)
    1f5c:	8fb00018 	lw	s0,24(sp)
    1f60:	a0c20000 	sb	v0,0(a2)
    1f64:	00001025 	move	v0,zero
    1f68:	03e00008 	jr	ra
    1f6c:	27bd0028 	addiu	sp,sp,40
    1f70:	00809025 	move	s2,a0
    1f74:	00c08825 	move	s1,a2
    1f78:	0c001d3c 	jal	74f0 <OS_CPU_SR_Save>
    1f7c:	00a08025 	move	s0,a1
    1f80:	8e430014 	lw	v1,20(s2)
    1f84:	afa20010 	sw	v0,16(sp)
    1f88:	00602025 	move	a0,v1
    1f8c:	0c001b75 	jal	6dd4 <OS_StrLen>
    1f90:	ae030000 	sw	v1,0(s0)
    1f94:	8fa40010 	lw	a0,16(sp)
    1f98:	0c001d43 	jal	750c <OS_CPU_SR_Restore>
    1f9c:	00408025 	move	s0,v0
    1fa0:	a2200000 	sb	zero,0(s1)
    1fa4:	8fbf0024 	lw	ra,36(sp)
    1fa8:	02001025 	move	v0,s0
    1fac:	8fb20020 	lw	s2,32(sp)
    1fb0:	8fb1001c 	lw	s1,28(sp)
    1fb4:	8fb00018 	lw	s0,24(sp)
    1fb8:	03e00008 	jr	ra
    1fbc:	27bd0028 	addiu	sp,sp,40

00001fc0 <OSMemNameSet>:
    1fc0:	93827b74 	lbu	v0,31604(gp)
    1fc4:	27bdffd8 	addiu	sp,sp,-40
    1fc8:	afbf0024 	sw	ra,36(sp)
    1fcc:	afb20020 	sw	s2,32(sp)
    1fd0:	afb1001c 	sw	s1,28(sp)
    1fd4:	afb00018 	sw	s0,24(sp)
    1fd8:	afa00010 	sw	zero,16(sp)
    1fdc:	10400008 	beqz	v0,2000 <OSMemNameSet+0x40>
    1fe0:	8fbf0024 	lw	ra,36(sp)
    1fe4:	24020012 	li	v0,18
    1fe8:	8fb20020 	lw	s2,32(sp)
    1fec:	8fb1001c 	lw	s1,28(sp)
    1ff0:	8fb00018 	lw	s0,24(sp)
    1ff4:	a0c20000 	sb	v0,0(a2)
    1ff8:	03e00008 	jr	ra
    1ffc:	27bd0028 	addiu	sp,sp,40
    2000:	00c08025 	move	s0,a2
    2004:	00a09025 	move	s2,a1
    2008:	0c001d3c 	jal	74f0 <OS_CPU_SR_Save>
    200c:	00808825 	move	s1,a0
    2010:	afa20010 	sw	v0,16(sp)
    2014:	8fa40010 	lw	a0,16(sp)
    2018:	0c001d43 	jal	750c <OS_CPU_SR_Restore>
    201c:	ae320014 	sw	s2,20(s1)
    2020:	a2000000 	sb	zero,0(s0)
    2024:	8fbf0024 	lw	ra,36(sp)
    2028:	8fb20020 	lw	s2,32(sp)
    202c:	8fb1001c 	lw	s1,28(sp)
    2030:	8fb00018 	lw	s0,24(sp)
    2034:	03e00008 	jr	ra
    2038:	27bd0028 	addiu	sp,sp,40

0000203c <OSMemPut>:
    203c:	27bdffd8 	addiu	sp,sp,-40
    2040:	afb0001c 	sw	s0,28(sp)
    2044:	00808025 	move	s0,a0
    2048:	afb10020 	sw	s1,32(sp)
    204c:	afbf0024 	sw	ra,36(sp)
    2050:	00a08825 	move	s1,a1
    2054:	afa00010 	sw	zero,16(sp)
    2058:	0c001d3c 	jal	74f0 <OS_CPU_SR_Save>
    205c:	00000000 	nop
    2060:	8e060010 	lw	a2,16(s0)
    2064:	8e03000c 	lw	v1,12(s0)
    2068:	afa20010 	sw	v0,16(sp)
    206c:	00c3102b 	sltu	v0,a2,v1
    2070:	1440000a 	bnez	v0,209c <OSMemPut+0x60>
    2074:	00000000 	nop
    2078:	8fa40010 	lw	a0,16(sp)
    207c:	0c001d43 	jal	750c <OS_CPU_SR_Restore>
    2080:	00000000 	nop
    2084:	8fbf0024 	lw	ra,36(sp)
    2088:	8fb10020 	lw	s1,32(sp)
    208c:	8fb0001c 	lw	s0,28(sp)
    2090:	2402005e 	li	v0,94
    2094:	03e00008 	jr	ra
    2098:	27bd0028 	addiu	sp,sp,40
    209c:	8e020004 	lw	v0,4(s0)
    20a0:	8fa40010 	lw	a0,16(sp)
    20a4:	24c60001 	addiu	a2,a2,1
    20a8:	ae220000 	sw	v0,0(s1)
    20ac:	ae110004 	sw	s1,4(s0)
    20b0:	0c001d43 	jal	750c <OS_CPU_SR_Restore>
    20b4:	ae060010 	sw	a2,16(s0)
    20b8:	8fbf0024 	lw	ra,36(sp)
    20bc:	8fb10020 	lw	s1,32(sp)
    20c0:	8fb0001c 	lw	s0,28(sp)
    20c4:	00001025 	move	v0,zero
    20c8:	03e00008 	jr	ra
    20cc:	27bd0028 	addiu	sp,sp,40

000020d0 <OSMemQuery>:
    20d0:	27bdffd8 	addiu	sp,sp,-40
    20d4:	afbf0024 	sw	ra,36(sp)
    20d8:	afb10020 	sw	s1,32(sp)
    20dc:	afb0001c 	sw	s0,28(sp)
    20e0:	00808825 	move	s1,a0
    20e4:	00a08025 	move	s0,a1
    20e8:	afa00010 	sw	zero,16(sp)
    20ec:	0c001d3c 	jal	74f0 <OS_CPU_SR_Save>
    20f0:	00000000 	nop
    20f4:	afa20010 	sw	v0,16(sp)
    20f8:	8e23000c 	lw	v1,12(s1)
    20fc:	8e220010 	lw	v0,16(s1)
    2100:	8e270000 	lw	a3,0(s1)
    2104:	8e260004 	lw	a2,4(s1)
    2108:	8e250008 	lw	a1,8(s1)
    210c:	8fa40010 	lw	a0,16(sp)
    2110:	ae03000c 	sw	v1,12(s0)
    2114:	ae020010 	sw	v0,16(s0)
    2118:	ae070000 	sw	a3,0(s0)
    211c:	ae060004 	sw	a2,4(s0)
    2120:	0c001d43 	jal	750c <OS_CPU_SR_Restore>
    2124:	ae050008 	sw	a1,8(s0)
    2128:	8e03000c 	lw	v1,12(s0)
    212c:	8e040010 	lw	a0,16(s0)
    2130:	8fbf0024 	lw	ra,36(sp)
    2134:	00641823 	subu	v1,v1,a0
    2138:	ae030014 	sw	v1,20(s0)
    213c:	8fb10020 	lw	s1,32(sp)
    2140:	8fb0001c 	lw	s0,28(sp)
    2144:	00001025 	move	v0,zero
    2148:	03e00008 	jr	ra
    214c:	27bd0028 	addiu	sp,sp,40

00002150 <OS_MemInit>:
    2150:	27bdffe8 	addiu	sp,sp,-24
    2154:	afb00010 	sw	s0,16(sp)
    2158:	3c100001 	lui	s0,0x1
    215c:	26048b18 	addiu	a0,s0,-29928
    2160:	afbf0014 	sw	ra,20(sp)
    2164:	0c0019e8 	jal	67a0 <OS_MemClr>
    2168:	24050078 	li	a1,120
    216c:	3c040001 	lui	a0,0x1
    2170:	26028b18 	addiu	v0,s0,-29928
    2174:	24848b30 	addiu	a0,a0,-29904
    2178:	ac440004 	sw	a0,4(v0)
    217c:	3c040001 	lui	a0,0x1
    2180:	24848b48 	addiu	a0,a0,-29880
    2184:	ac44001c 	sw	a0,28(v0)
    2188:	3c040001 	lui	a0,0x1
    218c:	24848b60 	addiu	a0,a0,-29856
    2190:	8fbf0014 	lw	ra,20(sp)
    2194:	3c030000 	lui	v1,0x0
    2198:	ac440034 	sw	a0,52(v0)
    219c:	3c040001 	lui	a0,0x1
    21a0:	24637a90 	addiu	v1,v1,31376
    21a4:	24848b78 	addiu	a0,a0,-29832
    21a8:	8fb00010 	lw	s0,16(sp)
    21ac:	ac430014 	sw	v1,20(v0)
    21b0:	ac43002c 	sw	v1,44(v0)
    21b4:	ac430044 	sw	v1,68(v0)
    21b8:	ac44004c 	sw	a0,76(v0)
    21bc:	ac43005c 	sw	v1,92(v0)
    21c0:	ac400064 	sw	zero,100(v0)
    21c4:	ac430074 	sw	v1,116(v0)
    21c8:	af827b58 	sw	v0,31576(gp)
    21cc:	03e00008 	jr	ra
    21d0:	27bd0018 	addiu	sp,sp,24

000021d4 <OSMutex_RdyAtPrio>:
    21d4:	90830038 	lbu	v1,56(a0)
    21d8:	27867b68 	addiu	a2,gp,31592
    21dc:	00c31821 	addu	v1,a2,v1
    21e0:	90820039 	lbu	v0,57(a0)
    21e4:	90670000 	lbu	a3,0(v1)
    21e8:	00021027 	nor	v0,zero,v0
    21ec:	00471024 	and	v0,v0,a3
    21f0:	1440001f 	bnez	v0,2270 <OSMutex_RdyAtPrio+0x9c>
    21f4:	a0620000 	sb	v0,0(v1)
    21f8:	9083003a 	lbu	v1,58(a0)
    21fc:	93827b64 	lbu	v0,31588(gp)
    2200:	00031827 	nor	v1,zero,v1
    2204:	00621824 	and	v1,v1,v0
    2208:	000538c2 	srl	a3,a1,0x3
    220c:	30e70007 	andi	a3,a3,0x7
    2210:	30ac0007 	andi	t4,a1,0x7
    2214:	24020001 	li	v0,1
    2218:	00c73021 	addu	a2,a2,a3
    221c:	90cb0000 	lbu	t3,0(a2)
    2220:	00e24004 	sllv	t0,v0,a3
    2224:	3c090001 	lui	t1,0x1
    2228:	01821004 	sllv	v0,v0,t4
    222c:	310800ff 	andi	t0,t0,0xff
    2230:	304200ff 	andi	v0,v0,0xff
    2234:	00055080 	sll	t2,a1,0x2
    2238:	25299a70 	addiu	t1,t1,-26000
    223c:	01031825 	or	v1,t0,v1
    2240:	004b5825 	or	t3,v0,t3
    2244:	01494821 	addu	t1,t2,t1
    2248:	a0850036 	sb	a1,54(a0)
    224c:	a0870038 	sb	a3,56(a0)
    2250:	a08c0037 	sb	t4,55(a0)
    2254:	a088003a 	sb	t0,58(a0)
    2258:	a0820039 	sb	v0,57(a0)
    225c:	a3857b3b 	sb	a1,31547(gp)
    2260:	a3837b64 	sb	v1,31588(gp)
    2264:	a0cb0000 	sb	t3,0(a2)
    2268:	03e00008 	jr	ra
    226c:	ad240000 	sw	a0,0(t1)
    2270:	1000ffe5 	b	2208 <OSMutex_RdyAtPrio+0x34>
    2274:	93837b64 	lbu	v1,31588(gp)

00002278 <OSMutexAccept>:
    2278:	27bdffd8 	addiu	sp,sp,-40
    227c:	afbf0024 	sw	ra,36(sp)
    2280:	afb20020 	sw	s2,32(sp)
    2284:	afb1001c 	sw	s1,28(sp)
    2288:	afb00018 	sw	s0,24(sp)
    228c:	90830000 	lbu	v1,0(a0)
    2290:	24020004 	li	v0,4
    2294:	afa00010 	sw	zero,16(sp)
    2298:	1062000a 	beq	v1,v0,22c4 <OSMutexAccept+0x4c>
    229c:	24020001 	li	v0,1
    22a0:	a0a20000 	sb	v0,0(a1)
    22a4:	00008025 	move	s0,zero
    22a8:	8fbf0024 	lw	ra,36(sp)
    22ac:	02001025 	move	v0,s0
    22b0:	8fb20020 	lw	s2,32(sp)
    22b4:	8fb1001c 	lw	s1,28(sp)
    22b8:	8fb00018 	lw	s0,24(sp)
    22bc:	03e00008 	jr	ra
    22c0:	27bd0028 	addiu	sp,sp,40
    22c4:	93907b74 	lbu	s0,31604(gp)
    22c8:	1200000a 	beqz	s0,22f4 <OSMutexAccept+0x7c>
    22cc:	24020002 	li	v0,2
    22d0:	a0a20000 	sb	v0,0(a1)
    22d4:	8fbf0024 	lw	ra,36(sp)
    22d8:	00008025 	move	s0,zero
    22dc:	02001025 	move	v0,s0
    22e0:	8fb20020 	lw	s2,32(sp)
    22e4:	8fb1001c 	lw	s1,28(sp)
    22e8:	8fb00018 	lw	s0,24(sp)
    22ec:	03e00008 	jr	ra
    22f0:	27bd0028 	addiu	sp,sp,40
    22f4:	00808825 	move	s1,a0
    22f8:	0c001d3c 	jal	74f0 <OS_CPU_SR_Save>
    22fc:	00a09025 	move	s2,a1
    2300:	96230008 	lhu	v1,8(s1)
    2304:	afa20010 	sw	v0,16(sp)
    2308:	306400ff 	andi	a0,v1,0xff
    230c:	240200ff 	li	v0,255
    2310:	14820012 	bne	a0,v0,235c <OSMutexAccept+0xe4>
    2314:	3062ff00 	andi	v0,v1,0xff00
    2318:	8f847b78 	lw	a0,31608(gp)
    231c:	a6220008 	sh	v0,8(s1)
    2320:	90850036 	lbu	a1,54(a0)
    2324:	ae240004 	sw	a0,4(s1)
    2328:	00451025 	or	v0,v0,a1
    232c:	a6220008 	sh	v0,8(s1)
    2330:	90820036 	lbu	v0,54(a0)
    2334:	00031a02 	srl	v1,v1,0x8
    2338:	0062182b 	sltu	v1,v1,v0
    233c:	8fa40010 	lw	a0,16(sp)
    2340:	1460000b 	bnez	v1,2370 <OSMutexAccept+0xf8>
    2344:	00000000 	nop
    2348:	0c001d43 	jal	750c <OS_CPU_SR_Restore>
    234c:	24100001 	li	s0,1
    2350:	24020078 	li	v0,120
    2354:	1000ffd4 	b	22a8 <OSMutexAccept+0x30>
    2358:	a2420000 	sb	v0,0(s2)
    235c:	8fa40010 	lw	a0,16(sp)
    2360:	0c001d43 	jal	750c <OS_CPU_SR_Restore>
    2364:	00000000 	nop
    2368:	1000ffcf 	b	22a8 <OSMutexAccept+0x30>
    236c:	a2400000 	sb	zero,0(s2)
    2370:	0c001d43 	jal	750c <OS_CPU_SR_Restore>
    2374:	24100001 	li	s0,1
    2378:	1000ffcb 	b	22a8 <OSMutexAccept+0x30>
    237c:	a2400000 	sb	zero,0(s2)

00002380 <OSMutexCreate>:
    2380:	93827b74 	lbu	v0,31604(gp)
    2384:	27bdffd8 	addiu	sp,sp,-40
    2388:	afbf0024 	sw	ra,36(sp)
    238c:	afb20020 	sw	s2,32(sp)
    2390:	afb1001c 	sw	s1,28(sp)
    2394:	afb00018 	sw	s0,24(sp)
    2398:	afa00010 	sw	zero,16(sp)
    239c:	14400025 	bnez	v0,2434 <OSMutexCreate+0xb4>
    23a0:	309100ff 	andi	s1,a0,0xff
    23a4:	0c001d3c 	jal	74f0 <OS_CPU_SR_Save>
    23a8:	00a09025 	move	s2,a1
    23ac:	3c040001 	lui	a0,0x1
    23b0:	24849a70 	addiu	a0,a0,-26000
    23b4:	00111880 	sll	v1,s1,0x2
    23b8:	00641821 	addu	v1,v1,a0
    23bc:	8c640000 	lw	a0,0(v1)
    23c0:	afa20010 	sw	v0,16(sp)
    23c4:	14800024 	bnez	a0,2458 <OSMutexCreate+0xd8>
    23c8:	8f907b70 	lw	s0,31600(gp)
    23cc:	24020001 	li	v0,1
    23d0:	ac620000 	sw	v0,0(v1)
    23d4:	8fa40010 	lw	a0,16(sp)
    23d8:	1200002b 	beqz	s0,2488 <OSMutexCreate+0x108>
    23dc:	00118a00 	sll	s1,s1,0x8
    23e0:	8e020004 	lw	v0,4(s0)
    23e4:	0c001d43 	jal	750c <OS_CPU_SR_Restore>
    23e8:	af827b70 	sw	v0,31600(gp)
    23ec:	24020004 	li	v0,4
    23f0:	a2020000 	sb	v0,0(s0)
    23f4:	3c020000 	lui	v0,0x0
    23f8:	24427a90 	addiu	v0,v0,31376
    23fc:	363100ff 	ori	s1,s1,0xff
    2400:	ae020014 	sw	v0,20(s0)
    2404:	a6110008 	sh	s1,8(s0)
    2408:	ae000004 	sw	zero,4(s0)
    240c:	0c0019df 	jal	677c <OS_EventWaitListInit>
    2410:	02002025 	move	a0,s0
    2414:	a2400000 	sb	zero,0(s2)
    2418:	02001025 	move	v0,s0
    241c:	8fbf0024 	lw	ra,36(sp)
    2420:	8fb20020 	lw	s2,32(sp)
    2424:	8fb1001c 	lw	s1,28(sp)
    2428:	8fb00018 	lw	s0,24(sp)
    242c:	03e00008 	jr	ra
    2430:	27bd0028 	addiu	sp,sp,40
    2434:	8fbf0024 	lw	ra,36(sp)
    2438:	24020010 	li	v0,16
    243c:	8fb20020 	lw	s2,32(sp)
    2440:	8fb1001c 	lw	s1,28(sp)
    2444:	8fb00018 	lw	s0,24(sp)
    2448:	a0a20000 	sb	v0,0(a1)
    244c:	00001025 	move	v0,zero
    2450:	03e00008 	jr	ra
    2454:	27bd0028 	addiu	sp,sp,40
    2458:	8fa40010 	lw	a0,16(sp)
    245c:	0c001d43 	jal	750c <OS_CPU_SR_Restore>
    2460:	00000000 	nop
    2464:	24020028 	li	v0,40
    2468:	a2420000 	sb	v0,0(s2)
    246c:	8fbf0024 	lw	ra,36(sp)
    2470:	8fb20020 	lw	s2,32(sp)
    2474:	8fb1001c 	lw	s1,28(sp)
    2478:	8fb00018 	lw	s0,24(sp)
    247c:	00001025 	move	v0,zero
    2480:	03e00008 	jr	ra
    2484:	27bd0028 	addiu	sp,sp,40
    2488:	0c001d43 	jal	750c <OS_CPU_SR_Restore>
    248c:	ac600000 	sw	zero,0(v1)
    2490:	24020004 	li	v0,4
    2494:	a2420000 	sb	v0,0(s2)
    2498:	1000ffe0 	b	241c <OSMutexCreate+0x9c>
    249c:	00001025 	move	v0,zero

000024a0 <OSMutexDel>:
    24a0:	27bdffd8 	addiu	sp,sp,-40
    24a4:	afb1001c 	sw	s1,28(sp)
    24a8:	afb00018 	sw	s0,24(sp)
    24ac:	afbf0024 	sw	ra,36(sp)
    24b0:	afb20020 	sw	s2,32(sp)
    24b4:	90830000 	lbu	v1,0(a0)
    24b8:	24020004 	li	v0,4
    24bc:	00808025 	move	s0,a0
    24c0:	00c08825 	move	s1,a2
    24c4:	afa00010 	sw	zero,16(sp)
    24c8:	10620009 	beq	v1,v0,24f0 <OSMutexDel+0x50>
    24cc:	24020001 	li	v0,1
    24d0:	a0c20000 	sb	v0,0(a2)
    24d4:	8fbf0024 	lw	ra,36(sp)
    24d8:	02001025 	move	v0,s0
    24dc:	8fb20020 	lw	s2,32(sp)
    24e0:	8fb1001c 	lw	s1,28(sp)
    24e4:	8fb00018 	lw	s0,24(sp)
    24e8:	03e00008 	jr	ra
    24ec:	27bd0028 	addiu	sp,sp,40
    24f0:	93827b74 	lbu	v0,31604(gp)
    24f4:	10400009 	beqz	v0,251c <OSMutexDel+0x7c>
    24f8:	2402000f 	li	v0,15
    24fc:	a0c20000 	sb	v0,0(a2)
    2500:	8fbf0024 	lw	ra,36(sp)
    2504:	02001025 	move	v0,s0
    2508:	8fb20020 	lw	s2,32(sp)
    250c:	8fb1001c 	lw	s1,28(sp)
    2510:	8fb00018 	lw	s0,24(sp)
    2514:	03e00008 	jr	ra
    2518:	27bd0028 	addiu	sp,sp,40
    251c:	0c001d3c 	jal	74f0 <OS_CPU_SR_Save>
    2520:	30b200ff 	andi	s2,a1,0xff
    2524:	9203000a 	lbu	v1,10(s0)
    2528:	afa20010 	sw	v0,16(sp)
    252c:	10600009 	beqz	v1,2554 <OSMutexDel+0xb4>
    2530:	00000000 	nop
    2534:	16400037 	bnez	s2,2614 <OSMutexDel+0x174>
    2538:	24020001 	li	v0,1
    253c:	8fa40010 	lw	a0,16(sp)
    2540:	0c001d43 	jal	750c <OS_CPU_SR_Restore>
    2544:	00000000 	nop
    2548:	24020049 	li	v0,73
    254c:	1000ffe1 	b	24d4 <OSMutexDel+0x34>
    2550:	a2220000 	sb	v0,0(s1)
    2554:	1240003b 	beqz	s2,2644 <OSMutexDel+0x1a4>
    2558:	24020001 	li	v0,1
    255c:	16420027 	bne	s2,v0,25fc <OSMutexDel+0x15c>
    2560:	00009025 	move	s2,zero
    2564:	96050008 	lhu	a1,8(s0)
    2568:	8e040004 	lw	a0,4(s0)
    256c:	10800004 	beqz	a0,2580 <OSMutexDel+0xe0>
    2570:	00051202 	srl	v0,a1,0x8
    2574:	90860036 	lbu	a2,54(a0)
    2578:	10c2002e 	beq	a2,v0,2634 <OSMutexDel+0x194>
    257c:	00000000 	nop
    2580:	10600008 	beqz	v1,25a4 <OSMutexDel+0x104>
    2584:	00003825 	move	a3,zero
    2588:	24060010 	li	a2,16
    258c:	00002825 	move	a1,zero
    2590:	0c001924 	jal	6490 <OS_EventTaskRdy>
    2594:	02002025 	move	a0,s0
    2598:	9202000a 	lbu	v0,10(s0)
    259c:	1440fffa 	bnez	v0,2588 <OSMutexDel+0xe8>
    25a0:	00003825 	move	a3,zero
    25a4:	96020008 	lhu	v0,8(s0)
    25a8:	8fa40010 	lw	a0,16(sp)
    25ac:	00021202 	srl	v0,v0,0x8
    25b0:	00021880 	sll	v1,v0,0x2
    25b4:	3c020001 	lui	v0,0x1
    25b8:	24429a70 	addiu	v0,v0,-26000
    25bc:	00621021 	addu	v0,v1,v0
    25c0:	3c030000 	lui	v1,0x0
    25c4:	24637a90 	addiu	v1,v1,31376
    25c8:	ae030014 	sw	v1,20(s0)
    25cc:	ac400000 	sw	zero,0(v0)
    25d0:	a2000000 	sb	zero,0(s0)
    25d4:	8f827b70 	lw	v0,31600(gp)
    25d8:	a6000008 	sh	zero,8(s0)
    25dc:	ae020004 	sw	v0,4(s0)
    25e0:	0c001d43 	jal	750c <OS_CPU_SR_Restore>
    25e4:	af907b70 	sw	s0,31600(gp)
    25e8:	1640000e 	bnez	s2,2624 <OSMutexDel+0x184>
    25ec:	00000000 	nop
    25f0:	a2200000 	sb	zero,0(s1)
    25f4:	1000ffb7 	b	24d4 <OSMutexDel+0x34>
    25f8:	00008025 	move	s0,zero
    25fc:	8fa40010 	lw	a0,16(sp)
    2600:	0c001d43 	jal	750c <OS_CPU_SR_Restore>
    2604:	00000000 	nop
    2608:	24020007 	li	v0,7
    260c:	1000ffb1 	b	24d4 <OSMutexDel+0x34>
    2610:	a2220000 	sb	v0,0(s1)
    2614:	1642fff9 	bne	s2,v0,25fc <OSMutexDel+0x15c>
    2618:	24120001 	li	s2,1
    261c:	1000ffd2 	b	2568 <OSMutexDel+0xc8>
    2620:	96050008 	lhu	a1,8(s0)
    2624:	0c001a02 	jal	6808 <OS_Sched>
    2628:	00008025 	move	s0,zero
    262c:	1000ffa9 	b	24d4 <OSMutexDel+0x34>
    2630:	a2200000 	sb	zero,0(s1)
    2634:	0c000875 	jal	21d4 <OSMutex_RdyAtPrio>
    2638:	30a500ff 	andi	a1,a1,0xff
    263c:	1000ffd0 	b	2580 <OSMutexDel+0xe0>
    2640:	9203000a 	lbu	v1,10(s0)
    2644:	96020008 	lhu	v0,8(s0)
    2648:	3c030001 	lui	v1,0x1
    264c:	00021202 	srl	v0,v0,0x8
    2650:	24639a70 	addiu	v1,v1,-26000
    2654:	00021080 	sll	v0,v0,0x2
    2658:	00431021 	addu	v0,v0,v1
    265c:	3c030000 	lui	v1,0x0
    2660:	24637a90 	addiu	v1,v1,31376
    2664:	ae030014 	sw	v1,20(s0)
    2668:	ac400000 	sw	zero,0(v0)
    266c:	a2000000 	sb	zero,0(s0)
    2670:	8f827b70 	lw	v0,31600(gp)
    2674:	8fa40010 	lw	a0,16(sp)
    2678:	ae020004 	sw	v0,4(s0)
    267c:	a6000008 	sh	zero,8(s0)
    2680:	0c001d43 	jal	750c <OS_CPU_SR_Restore>
    2684:	af907b70 	sw	s0,31600(gp)
    2688:	00008025 	move	s0,zero
    268c:	1000ff91 	b	24d4 <OSMutexDel+0x34>
    2690:	a2200000 	sb	zero,0(s1)

00002694 <OSMutexPend>:
    2694:	27bdffd8 	addiu	sp,sp,-40
    2698:	afbf0024 	sw	ra,36(sp)
    269c:	afb20020 	sw	s2,32(sp)
    26a0:	afb1001c 	sw	s1,28(sp)
    26a4:	afb00018 	sw	s0,24(sp)
    26a8:	90830000 	lbu	v1,0(a0)
    26ac:	24020004 	li	v0,4
    26b0:	afa00010 	sw	zero,16(sp)
    26b4:	10620008 	beq	v1,v0,26d8 <OSMutexPend+0x44>
    26b8:	24020001 	li	v0,1
    26bc:	a0c20000 	sb	v0,0(a2)
    26c0:	8fbf0024 	lw	ra,36(sp)
    26c4:	8fb20020 	lw	s2,32(sp)
    26c8:	8fb1001c 	lw	s1,28(sp)
    26cc:	8fb00018 	lw	s0,24(sp)
    26d0:	03e00008 	jr	ra
    26d4:	27bd0028 	addiu	sp,sp,40
    26d8:	93827b74 	lbu	v0,31604(gp)
    26dc:	14400044 	bnez	v0,27f0 <OSMutexPend+0x15c>
    26e0:	93827b28 	lbu	v0,31528(gp)
    26e4:	10400008 	beqz	v0,2708 <OSMutexPend+0x74>
    26e8:	2402000d 	li	v0,13
    26ec:	a0c20000 	sb	v0,0(a2)
    26f0:	8fbf0024 	lw	ra,36(sp)
    26f4:	8fb20020 	lw	s2,32(sp)
    26f8:	8fb1001c 	lw	s1,28(sp)
    26fc:	8fb00018 	lw	s0,24(sp)
    2700:	03e00008 	jr	ra
    2704:	27bd0028 	addiu	sp,sp,40
    2708:	00808025 	move	s0,a0
    270c:	00a09025 	move	s2,a1
    2710:	0c001d3c 	jal	74f0 <OS_CPU_SR_Save>
    2714:	00c08825 	move	s1,a2
    2718:	96030008 	lhu	v1,8(s0)
    271c:	afa20010 	sw	v0,16(sp)
    2720:	306500ff 	andi	a1,v1,0xff
    2724:	240200ff 	li	v0,255
    2728:	10a20058 	beq	a1,v0,288c <OSMutexPend+0x1f8>
    272c:	00032202 	srl	a0,v1,0x8
    2730:	8e030004 	lw	v1,4(s0)
    2734:	90620036 	lbu	v0,54(v1)
    2738:	0082102b 	sltu	v0,a0,v0
    273c:	10400034 	beqz	v0,2810 <OSMutexPend+0x17c>
    2740:	8f827b78 	lw	v0,31608(gp)
    2744:	90460036 	lbu	a2,54(v0)
    2748:	00c5282b 	sltu	a1,a2,a1
    274c:	10a00030 	beqz	a1,2810 <OSMutexPend+0x17c>
    2750:	27867b68 	addiu	a2,gp,31592
    2754:	90680038 	lbu	t0,56(v1)
    2758:	00c84821 	addu	t1,a2,t0
    275c:	91270000 	lbu	a3,0(t1)
    2760:	90650039 	lbu	a1,57(v1)
    2764:	00e55024 	and	t2,a3,a1
    2768:	11400065 	beqz	t2,2900 <OSMutexPend+0x26c>
    276c:	00000000 	nop
    2770:	00052827 	nor	a1,zero,a1
    2774:	00e52824 	and	a1,a3,a1
    2778:	14a00085 	bnez	a1,2990 <OSMutexPend+0x2fc>
    277c:	a1250000 	sb	a1,0(t1)
    2780:	9065003a 	lbu	a1,58(v1)
    2784:	93877b64 	lbu	a3,31588(gp)
    2788:	00052827 	nor	a1,zero,a1
    278c:	00a73824 	and	a3,a1,a3
    2790:	000450c2 	srl	t2,a0,0x3
    2794:	308b0007 	andi	t3,a0,0x7
    2798:	24050001 	li	a1,1
    279c:	00ca3021 	addu	a2,a2,t2
    27a0:	90c90000 	lbu	t1,0(a2)
    27a4:	01454004 	sllv	t0,a1,t2
    27a8:	01652804 	sllv	a1,a1,t3
    27ac:	310800ff 	andi	t0,t0,0xff
    27b0:	30a500ff 	andi	a1,a1,0xff
    27b4:	00e83825 	or	a3,a3,t0
    27b8:	00a94825 	or	t1,a1,t1
    27bc:	a0640036 	sb	a0,54(v1)
    27c0:	a06a0038 	sb	t2,56(v1)
    27c4:	a06b0037 	sb	t3,55(v1)
    27c8:	a068003a 	sb	t0,58(v1)
    27cc:	a0650039 	sb	a1,57(v1)
    27d0:	a3877b64 	sb	a3,31588(gp)
    27d4:	a0c90000 	sb	t1,0(a2)
    27d8:	3c050001 	lui	a1,0x1
    27dc:	00042080 	sll	a0,a0,0x2
    27e0:	24a59a70 	addiu	a1,a1,-26000
    27e4:	00852021 	addu	a0,a0,a1
    27e8:	10000009 	b	2810 <OSMutexPend+0x17c>
    27ec:	ac830000 	sw	v1,0(a0)
    27f0:	24020002 	li	v0,2
    27f4:	a0c20000 	sb	v0,0(a2)
    27f8:	8fbf0024 	lw	ra,36(sp)
    27fc:	8fb20020 	lw	s2,32(sp)
    2800:	8fb1001c 	lw	s1,28(sp)
    2804:	8fb00018 	lw	s0,24(sp)
    2808:	03e00008 	jr	ra
    280c:	27bd0028 	addiu	sp,sp,40
    2810:	90430034 	lbu	v1,52(v0)
    2814:	ac520030 	sw	s2,48(v0)
    2818:	34630010 	ori	v1,v1,0x10
    281c:	a0430034 	sb	v1,52(v0)
    2820:	a0400035 	sb	zero,53(v0)
    2824:	0c001979 	jal	65e4 <OS_EventTaskWait>
    2828:	02002025 	move	a0,s0
    282c:	8fa40010 	lw	a0,16(sp)
    2830:	0c001d43 	jal	750c <OS_CPU_SR_Restore>
    2834:	00000000 	nop
    2838:	0c001a02 	jal	6808 <OS_Sched>
    283c:	00000000 	nop
    2840:	0c001d3c 	jal	74f0 <OS_CPU_SR_Save>
    2844:	00000000 	nop
    2848:	8f847b78 	lw	a0,31608(gp)
    284c:	afa20010 	sw	v0,16(sp)
    2850:	90820035 	lbu	v0,53(a0)
    2854:	10400023 	beqz	v0,28e4 <OSMutexPend+0x250>
    2858:	24030002 	li	v1,2
    285c:	1443001c 	bne	v0,v1,28d0 <OSMutexPend+0x23c>
    2860:	2402000e 	li	v0,14
    2864:	a2220000 	sb	v0,0(s1)
    2868:	8f827b78 	lw	v0,31608(gp)
    286c:	8fa40010 	lw	a0,16(sp)
    2870:	a0400034 	sb	zero,52(v0)
    2874:	a0400035 	sb	zero,53(v0)
    2878:	ac40001c 	sw	zero,28(v0)
    287c:	0c001d43 	jal	750c <OS_CPU_SR_Restore>
    2880:	ac400020 	sw	zero,32(v0)
    2884:	1000ff8f 	b	26c4 <OSMutexPend+0x30>
    2888:	8fbf0024 	lw	ra,36(sp)
    288c:	8f827b78 	lw	v0,31608(gp)
    2890:	3063ff00 	andi	v1,v1,0xff00
    2894:	a6030008 	sh	v1,8(s0)
    2898:	90450036 	lbu	a1,54(v0)
    289c:	ae020004 	sw	v0,4(s0)
    28a0:	00651825 	or	v1,v1,a1
    28a4:	a6030008 	sh	v1,8(s0)
    28a8:	90420036 	lbu	v0,54(v0)
    28ac:	0082202b 	sltu	a0,a0,v0
    28b0:	1480000e 	bnez	a0,28ec <OSMutexPend+0x258>
    28b4:	00000000 	nop
    28b8:	8fa40010 	lw	a0,16(sp)
    28bc:	0c001d43 	jal	750c <OS_CPU_SR_Restore>
    28c0:	00000000 	nop
    28c4:	24020078 	li	v0,120
    28c8:	1000ff7d 	b	26c0 <OSMutexPend+0x2c>
    28cc:	a2220000 	sb	v0,0(s1)
    28d0:	0c0019ba 	jal	66e8 <OS_EventTaskRemove>
    28d4:	02002825 	move	a1,s0
    28d8:	2402000a 	li	v0,10
    28dc:	1000ffe2 	b	2868 <OSMutexPend+0x1d4>
    28e0:	a2220000 	sb	v0,0(s1)
    28e4:	1000ffe0 	b	2868 <OSMutexPend+0x1d4>
    28e8:	a2200000 	sb	zero,0(s1)
    28ec:	8fa40010 	lw	a0,16(sp)
    28f0:	0c001d43 	jal	750c <OS_CPU_SR_Restore>
    28f4:	00000000 	nop
    28f8:	1000ff71 	b	26c0 <OSMutexPend+0x2c>
    28fc:	a2200000 	sb	zero,0(s1)
    2900:	8c66001c 	lw	a2,28(v1)
    2904:	10c00024 	beqz	a2,2998 <OSMutexPend+0x304>
    2908:	00c84021 	addu	t0,a2,t0
    290c:	9107000b 	lbu	a3,11(t0)
    2910:	00052827 	nor	a1,zero,a1
    2914:	00a72824 	and	a1,a1,a3
    2918:	14a00006 	bnez	a1,2934 <OSMutexPend+0x2a0>
    291c:	a105000b 	sb	a1,11(t0)
    2920:	9065003a 	lbu	a1,58(v1)
    2924:	90c7000a 	lbu	a3,10(a2)
    2928:	00052827 	nor	a1,zero,a1
    292c:	00a72824 	and	a1,a1,a3
    2930:	a0c5000a 	sb	a1,10(a2)
    2934:	000448c2 	srl	t1,a0,0x3
    2938:	24070001 	li	a3,1
    293c:	30880007 	andi	t0,a0,0x7
    2940:	01273004 	sllv	a2,a3,t1
    2944:	8c65001c 	lw	a1,28(v1)
    2948:	30c600ff 	andi	a2,a2,0xff
    294c:	01073804 	sllv	a3,a3,t0
    2950:	a0640036 	sb	a0,54(v1)
    2954:	a0690038 	sb	t1,56(v1)
    2958:	a0680037 	sb	t0,55(v1)
    295c:	a066003a 	sb	a2,58(v1)
    2960:	10a0ff9d 	beqz	a1,27d8 <OSMutexPend+0x144>
    2964:	a0670039 	sb	a3,57(v1)
    2968:	90a7000a 	lbu	a3,10(a1)
    296c:	00c73025 	or	a2,a2,a3
    2970:	a0a6000a 	sb	a2,10(a1)
    2974:	90660038 	lbu	a2,56(v1)
    2978:	90670039 	lbu	a3,57(v1)
    297c:	00a62821 	addu	a1,a1,a2
    2980:	90a6000b 	lbu	a2,11(a1)
    2984:	00c73025 	or	a2,a2,a3
    2988:	1000ff93 	b	27d8 <OSMutexPend+0x144>
    298c:	a0a6000b 	sb	a2,11(a1)
    2990:	1000ff7f 	b	2790 <OSMutexPend+0xfc>
    2994:	93877b64 	lbu	a3,31588(gp)
    2998:	000438c2 	srl	a3,a0,0x3
    299c:	30860007 	andi	a2,a0,0x7
    29a0:	24050001 	li	a1,1
    29a4:	00e54004 	sllv	t0,a1,a3
    29a8:	00c52804 	sllv	a1,a1,a2
    29ac:	a0640036 	sb	a0,54(v1)
    29b0:	a0670038 	sb	a3,56(v1)
    29b4:	a0660037 	sb	a2,55(v1)
    29b8:	a068003a 	sb	t0,58(v1)
    29bc:	1000ff86 	b	27d8 <OSMutexPend+0x144>
    29c0:	a0650039 	sb	a1,57(v1)

000029c4 <OSMutexPost>:
    29c4:	93827b74 	lbu	v0,31604(gp)
    29c8:	27bdffd0 	addiu	sp,sp,-48
    29cc:	afbf002c 	sw	ra,44(sp)
    29d0:	afb20028 	sw	s2,40(sp)
    29d4:	afb10024 	sw	s1,36(sp)
    29d8:	afb00020 	sw	s0,32(sp)
    29dc:	afa00010 	sw	zero,16(sp)
    29e0:	10400007 	beqz	v0,2a00 <OSMutexPost+0x3c>
    29e4:	24020005 	li	v0,5
    29e8:	8fbf002c 	lw	ra,44(sp)
    29ec:	8fb20028 	lw	s2,40(sp)
    29f0:	8fb10024 	lw	s1,36(sp)
    29f4:	8fb00020 	lw	s0,32(sp)
    29f8:	03e00008 	jr	ra
    29fc:	27bd0030 	addiu	sp,sp,48
    2a00:	90830000 	lbu	v1,0(a0)
    2a04:	24020004 	li	v0,4
    2a08:	10620007 	beq	v1,v0,2a28 <OSMutexPost+0x64>
    2a0c:	8fbf002c 	lw	ra,44(sp)
    2a10:	8fb20028 	lw	s2,40(sp)
    2a14:	8fb10024 	lw	s1,36(sp)
    2a18:	8fb00020 	lw	s0,32(sp)
    2a1c:	24020001 	li	v0,1
    2a20:	03e00008 	jr	ra
    2a24:	27bd0030 	addiu	sp,sp,48
    2a28:	0c001d3c 	jal	74f0 <OS_CPU_SR_Save>
    2a2c:	00808025 	move	s0,a0
    2a30:	afa20010 	sw	v0,16(sp)
    2a34:	8e040004 	lw	a0,4(s0)
    2a38:	8f827b78 	lw	v0,31608(gp)
    2a3c:	10820006 	beq	a0,v0,2a58 <OSMutexPost+0x94>
    2a40:	00000000 	nop
    2a44:	8fa40010 	lw	a0,16(sp)
    2a48:	0c001d43 	jal	750c <OS_CPU_SR_Restore>
    2a4c:	00000000 	nop
    2a50:	1000ffe5 	b	29e8 <OSMutexPost+0x24>
    2a54:	24020064 	li	v0,100
    2a58:	96050008 	lhu	a1,8(s0)
    2a5c:	90820036 	lbu	v0,54(a0)
    2a60:	00056a02 	srl	t5,a1,0x8
    2a64:	31b200ff 	andi	s2,t5,0xff
    2a68:	1052002f 	beq	v0,s2,2b28 <OSMutexPost+0x164>
    2a6c:	00000000 	nop
    2a70:	3c110001 	lui	s1,0x1
    2a74:	000d1080 	sll	v0,t5,0x2
    2a78:	26319a70 	addiu	s1,s1,-26000
    2a7c:	00511021 	addu	v0,v0,s1
    2a80:	24030001 	li	v1,1
    2a84:	ac430000 	sw	v1,0(v0)
    2a88:	9202000a 	lbu	v0,10(s0)
    2a8c:	10400017 	beqz	v0,2aec <OSMutexPost+0x128>
    2a90:	00003825 	move	a3,zero
    2a94:	02002025 	move	a0,s0
    2a98:	24060010 	li	a2,16
    2a9c:	0c001924 	jal	6490 <OS_EventTaskRdy>
    2aa0:	00002825 	move	a1,zero
    2aa4:	00022080 	sll	a0,v0,0x2
    2aa8:	96030008 	lhu	v1,8(s0)
    2aac:	00918821 	addu	s1,a0,s1
    2ab0:	8e240000 	lw	a0,0(s1)
    2ab4:	3063ff00 	andi	v1,v1,0xff00
    2ab8:	00621825 	or	v1,v1,v0
    2abc:	0242902b 	sltu	s2,s2,v0
    2ac0:	ae040004 	sw	a0,4(s0)
    2ac4:	a6030008 	sh	v1,8(s0)
    2ac8:	8fa40010 	lw	a0,16(sp)
    2acc:	16400010 	bnez	s2,2b10 <OSMutexPost+0x14c>
    2ad0:	00000000 	nop
    2ad4:	0c001d43 	jal	750c <OS_CPU_SR_Restore>
    2ad8:	00000000 	nop
    2adc:	0c001a02 	jal	6808 <OS_Sched>
    2ae0:	00000000 	nop
    2ae4:	1000ffc0 	b	29e8 <OSMutexPost+0x24>
    2ae8:	24020078 	li	v0,120
    2aec:	96030008 	lhu	v1,8(s0)
    2af0:	8fa40010 	lw	a0,16(sp)
    2af4:	346300ff 	ori	v1,v1,0xff
    2af8:	a6030008 	sh	v1,8(s0)
    2afc:	ae000004 	sw	zero,4(s0)
    2b00:	0c001d43 	jal	750c <OS_CPU_SR_Restore>
    2b04:	afa20018 	sw	v0,24(sp)
    2b08:	1000ffb7 	b	29e8 <OSMutexPost+0x24>
    2b0c:	8fa20018 	lw	v0,24(sp)
    2b10:	0c001d43 	jal	750c <OS_CPU_SR_Restore>
    2b14:	00000000 	nop
    2b18:	0c001a02 	jal	6808 <OS_Sched>
    2b1c:	00000000 	nop
    2b20:	1000ffb1 	b	29e8 <OSMutexPost+0x24>
    2b24:	00001025 	move	v0,zero
    2b28:	0c000875 	jal	21d4 <OSMutex_RdyAtPrio>
    2b2c:	30a500ff 	andi	a1,a1,0xff
    2b30:	1000ffd0 	b	2a74 <OSMutexPost+0xb0>
    2b34:	3c110001 	lui	s1,0x1

00002b38 <OSMutexQuery>:
    2b38:	27bdffd8 	addiu	sp,sp,-40
    2b3c:	afb00018 	sw	s0,24(sp)
    2b40:	93907b74 	lbu	s0,31604(gp)
    2b44:	afbf0024 	sw	ra,36(sp)
    2b48:	afb20020 	sw	s2,32(sp)
    2b4c:	afb1001c 	sw	s1,28(sp)
    2b50:	afa00010 	sw	zero,16(sp)
    2b54:	12000008 	beqz	s0,2b78 <OSMutexQuery+0x40>
    2b58:	8fbf0024 	lw	ra,36(sp)
    2b5c:	24100006 	li	s0,6
    2b60:	02001025 	move	v0,s0
    2b64:	8fb20020 	lw	s2,32(sp)
    2b68:	8fb1001c 	lw	s1,28(sp)
    2b6c:	8fb00018 	lw	s0,24(sp)
    2b70:	03e00008 	jr	ra
    2b74:	27bd0028 	addiu	sp,sp,40
    2b78:	90830000 	lbu	v1,0(a0)
    2b7c:	24020004 	li	v0,4
    2b80:	10620007 	beq	v1,v0,2ba0 <OSMutexQuery+0x68>
    2b84:	8fb20020 	lw	s2,32(sp)
    2b88:	24100001 	li	s0,1
    2b8c:	02001025 	move	v0,s0
    2b90:	8fb1001c 	lw	s1,28(sp)
    2b94:	8fb00018 	lw	s0,24(sp)
    2b98:	03e00008 	jr	ra
    2b9c:	27bd0028 	addiu	sp,sp,40
    2ba0:	00809025 	move	s2,a0
    2ba4:	0c001d3c 	jal	74f0 <OS_CPU_SR_Save>
    2ba8:	00a08825 	move	s1,a1
    2bac:	96430008 	lhu	v1,8(s2)
    2bb0:	afa20010 	sw	v0,16(sp)
    2bb4:	00031a02 	srl	v1,v1,0x8
    2bb8:	a223000b 	sb	v1,11(s1)
    2bbc:	92430009 	lbu	v1,9(s2)
    2bc0:	240200ff 	li	v0,255
    2bc4:	10620011 	beq	v1,v0,2c0c <OSMutexQuery+0xd4>
    2bc8:	a223000a 	sb	v1,10(s1)
    2bcc:	a2200009 	sb	zero,9(s1)
    2bd0:	9243000a 	lbu	v1,10(s2)
    2bd4:	2642000b 	addiu	v0,s2,11
    2bd8:	a2230008 	sb	v1,8(s1)
    2bdc:	02202825 	move	a1,s1
    2be0:	26440013 	addiu	a0,s2,19
    2be4:	24420001 	addiu	v0,v0,1
    2be8:	9043ffff 	lbu	v1,-1(v0)
    2bec:	24a50001 	addiu	a1,a1,1
    2bf0:	1482fffc 	bne	a0,v0,2be4 <OSMutexQuery+0xac>
    2bf4:	a0a3ffff 	sb	v1,-1(a1)
    2bf8:	8fa40010 	lw	a0,16(sp)
    2bfc:	0c001d43 	jal	750c <OS_CPU_SR_Restore>
    2c00:	00000000 	nop
    2c04:	1000ffd6 	b	2b60 <OSMutexQuery+0x28>
    2c08:	8fbf0024 	lw	ra,36(sp)
    2c0c:	24020001 	li	v0,1
    2c10:	1000ffef 	b	2bd0 <OSMutexQuery+0x98>
    2c14:	a2220009 	sb	v0,9(s1)

00002c18 <OSQAccept>:
    2c18:	27bdffd8 	addiu	sp,sp,-40
    2c1c:	afbf0024 	sw	ra,36(sp)
    2c20:	afb10020 	sw	s1,32(sp)
    2c24:	afb0001c 	sw	s0,28(sp)
    2c28:	90830000 	lbu	v1,0(a0)
    2c2c:	24020002 	li	v0,2
    2c30:	afa00010 	sw	zero,16(sp)
    2c34:	1462001d 	bne	v1,v0,2cac <OSQAccept+0x94>
    2c38:	00808025 	move	s0,a0
    2c3c:	0c001d3c 	jal	74f0 <OS_CPU_SR_Save>
    2c40:	00a08825 	move	s1,a1
    2c44:	8e030004 	lw	v1,4(s0)
    2c48:	afa20010 	sw	v0,16(sp)
    2c4c:	94620016 	lhu	v0,22(v1)
    2c50:	1440000d 	bnez	v0,2c88 <OSQAccept+0x70>
    2c54:	2442ffff 	addiu	v0,v0,-1
    2c58:	2402001f 	li	v0,31
    2c5c:	a2220000 	sb	v0,0(s1)
    2c60:	00008025 	move	s0,zero
    2c64:	8fa40010 	lw	a0,16(sp)
    2c68:	0c001d43 	jal	750c <OS_CPU_SR_Restore>
    2c6c:	00000000 	nop
    2c70:	8fbf0024 	lw	ra,36(sp)
    2c74:	02001025 	move	v0,s0
    2c78:	8fb10020 	lw	s1,32(sp)
    2c7c:	8fb0001c 	lw	s0,28(sp)
    2c80:	03e00008 	jr	ra
    2c84:	27bd0028 	addiu	sp,sp,40
    2c88:	8c650010 	lw	a1,16(v1)
    2c8c:	8c660008 	lw	a2,8(v1)
    2c90:	24a40004 	addiu	a0,a1,4
    2c94:	ac640010 	sw	a0,16(v1)
    2c98:	8cb00000 	lw	s0,0(a1)
    2c9c:	1086000b 	beq	a0,a2,2ccc <OSQAccept+0xb4>
    2ca0:	a4620016 	sh	v0,22(v1)
    2ca4:	1000ffef 	b	2c64 <OSQAccept+0x4c>
    2ca8:	a2200000 	sb	zero,0(s1)
    2cac:	24020001 	li	v0,1
    2cb0:	a0a20000 	sb	v0,0(a1)
    2cb4:	8fbf0024 	lw	ra,36(sp)
    2cb8:	8fb10020 	lw	s1,32(sp)
    2cbc:	8fb0001c 	lw	s0,28(sp)
    2cc0:	00001025 	move	v0,zero
    2cc4:	03e00008 	jr	ra
    2cc8:	27bd0028 	addiu	sp,sp,40
    2ccc:	8c620004 	lw	v0,4(v1)
    2cd0:	ac620010 	sw	v0,16(v1)
    2cd4:	1000ffe3 	b	2c64 <OSQAccept+0x4c>
    2cd8:	a2200000 	sb	zero,0(s1)

00002cdc <OSQCreate>:
    2cdc:	93827b74 	lbu	v0,31604(gp)
    2ce0:	27bdffd0 	addiu	sp,sp,-48
    2ce4:	afbf002c 	sw	ra,44(sp)
    2ce8:	afb30028 	sw	s3,40(sp)
    2cec:	afb20024 	sw	s2,36(sp)
    2cf0:	afb10020 	sw	s1,32(sp)
    2cf4:	afb0001c 	sw	s0,28(sp)
    2cf8:	afa00010 	sw	zero,16(sp)
    2cfc:	14400030 	bnez	v0,2dc0 <OSQCreate+0xe4>
    2d00:	00809025 	move	s2,a0
    2d04:	0c001d3c 	jal	74f0 <OS_CPU_SR_Save>
    2d08:	30b3ffff 	andi	s3,a1,0xffff
    2d0c:	8f907b70 	lw	s0,31600(gp)
    2d10:	afa20010 	sw	v0,16(sp)
    2d14:	8fa40010 	lw	a0,16(sp)
    2d18:	12000027 	beqz	s0,2db8 <OSQCreate+0xdc>
    2d1c:	00000000 	nop
    2d20:	8e020004 	lw	v0,4(s0)
    2d24:	0c001d43 	jal	750c <OS_CPU_SR_Restore>
    2d28:	af827b70 	sw	v0,31600(gp)
    2d2c:	0c001d3c 	jal	74f0 <OS_CPU_SR_Save>
    2d30:	00000000 	nop
    2d34:	8f917b60 	lw	s1,31584(gp)
    2d38:	afa20010 	sw	v0,16(sp)
    2d3c:	8fa40010 	lw	a0,16(sp)
    2d40:	12200027 	beqz	s1,2de0 <OSQCreate+0x104>
    2d44:	8f827b70 	lw	v0,31600(gp)
    2d48:	8e220000 	lw	v0,0(s1)
    2d4c:	0c001d43 	jal	750c <OS_CPU_SR_Restore>
    2d50:	af827b60 	sw	v0,31584(gp)
    2d54:	00131080 	sll	v0,s3,0x2
    2d58:	02421021 	addu	v0,s2,v0
    2d5c:	ae220008 	sw	v0,8(s1)
    2d60:	24020002 	li	v0,2
    2d64:	ae320004 	sw	s2,4(s1)
    2d68:	ae32000c 	sw	s2,12(s1)
    2d6c:	ae320010 	sw	s2,16(s1)
    2d70:	a6330014 	sh	s3,20(s1)
    2d74:	a6200016 	sh	zero,22(s1)
    2d78:	a2020000 	sb	v0,0(s0)
    2d7c:	3c020000 	lui	v0,0x0
    2d80:	24427a90 	addiu	v0,v0,31376
    2d84:	ae020014 	sw	v0,20(s0)
    2d88:	02002025 	move	a0,s0
    2d8c:	a6000008 	sh	zero,8(s0)
    2d90:	0c0019df 	jal	677c <OS_EventWaitListInit>
    2d94:	ae110004 	sw	s1,4(s0)
    2d98:	02001025 	move	v0,s0
    2d9c:	8fbf002c 	lw	ra,44(sp)
    2da0:	8fb30028 	lw	s3,40(sp)
    2da4:	8fb20024 	lw	s2,36(sp)
    2da8:	8fb10020 	lw	s1,32(sp)
    2dac:	8fb0001c 	lw	s0,28(sp)
    2db0:	03e00008 	jr	ra
    2db4:	27bd0030 	addiu	sp,sp,48
    2db8:	0c001d43 	jal	750c <OS_CPU_SR_Restore>
    2dbc:	00000000 	nop
    2dc0:	8fbf002c 	lw	ra,44(sp)
    2dc4:	8fb30028 	lw	s3,40(sp)
    2dc8:	8fb20024 	lw	s2,36(sp)
    2dcc:	8fb10020 	lw	s1,32(sp)
    2dd0:	8fb0001c 	lw	s0,28(sp)
    2dd4:	00001025 	move	v0,zero
    2dd8:	03e00008 	jr	ra
    2ddc:	27bd0030 	addiu	sp,sp,48
    2de0:	af907b70 	sw	s0,31600(gp)
    2de4:	0c001d43 	jal	750c <OS_CPU_SR_Restore>
    2de8:	ae020004 	sw	v0,4(s0)
    2dec:	1000ffeb 	b	2d9c <OSQCreate+0xc0>
    2df0:	00001025 	move	v0,zero

00002df4 <OSQDel>:
    2df4:	27bdffd8 	addiu	sp,sp,-40
    2df8:	afb1001c 	sw	s1,28(sp)
    2dfc:	afb00018 	sw	s0,24(sp)
    2e00:	afbf0024 	sw	ra,36(sp)
    2e04:	afb20020 	sw	s2,32(sp)
    2e08:	90830000 	lbu	v1,0(a0)
    2e0c:	24020002 	li	v0,2
    2e10:	00808025 	move	s0,a0
    2e14:	00c08825 	move	s1,a2
    2e18:	afa00010 	sw	zero,16(sp)
    2e1c:	10620009 	beq	v1,v0,2e44 <OSQDel+0x50>
    2e20:	24020001 	li	v0,1
    2e24:	a0c20000 	sb	v0,0(a2)
    2e28:	8fbf0024 	lw	ra,36(sp)
    2e2c:	02001025 	move	v0,s0
    2e30:	8fb20020 	lw	s2,32(sp)
    2e34:	8fb1001c 	lw	s1,28(sp)
    2e38:	8fb00018 	lw	s0,24(sp)
    2e3c:	03e00008 	jr	ra
    2e40:	27bd0028 	addiu	sp,sp,40
    2e44:	93827b74 	lbu	v0,31604(gp)
    2e48:	10400009 	beqz	v0,2e70 <OSQDel+0x7c>
    2e4c:	2402000f 	li	v0,15
    2e50:	a0c20000 	sb	v0,0(a2)
    2e54:	8fbf0024 	lw	ra,36(sp)
    2e58:	02001025 	move	v0,s0
    2e5c:	8fb20020 	lw	s2,32(sp)
    2e60:	8fb1001c 	lw	s1,28(sp)
    2e64:	8fb00018 	lw	s0,24(sp)
    2e68:	03e00008 	jr	ra
    2e6c:	27bd0028 	addiu	sp,sp,40
    2e70:	0c001d3c 	jal	74f0 <OS_CPU_SR_Save>
    2e74:	30b200ff 	andi	s2,a1,0xff
    2e78:	9203000a 	lbu	v1,10(s0)
    2e7c:	afa20010 	sw	v0,16(sp)
    2e80:	10600009 	beqz	v1,2ea8 <OSQDel+0xb4>
    2e84:	00000000 	nop
    2e88:	16400024 	bnez	s2,2f1c <OSQDel+0x128>
    2e8c:	24020001 	li	v0,1
    2e90:	8fa40010 	lw	a0,16(sp)
    2e94:	0c001d43 	jal	750c <OS_CPU_SR_Restore>
    2e98:	00000000 	nop
    2e9c:	24020049 	li	v0,73
    2ea0:	1000ffe1 	b	2e28 <OSQDel+0x34>
    2ea4:	a2220000 	sb	v0,0(s1)
    2ea8:	1240002b 	beqz	s2,2f58 <OSQDel+0x164>
    2eac:	24020001 	li	v0,1
    2eb0:	16420014 	bne	s2,v0,2f04 <OSQDel+0x110>
    2eb4:	00009025 	move	s2,zero
    2eb8:	3c020000 	lui	v0,0x0
    2ebc:	24427a90 	addiu	v0,v0,31376
    2ec0:	8e030004 	lw	v1,4(s0)
    2ec4:	ae020014 	sw	v0,20(s0)
    2ec8:	8f827b60 	lw	v0,31584(gp)
    2ecc:	8fa40010 	lw	a0,16(sp)
    2ed0:	ac620000 	sw	v0,0(v1)
    2ed4:	af837b60 	sw	v1,31584(gp)
    2ed8:	a2000000 	sb	zero,0(s0)
    2edc:	8f827b70 	lw	v0,31600(gp)
    2ee0:	a6000008 	sh	zero,8(s0)
    2ee4:	ae020004 	sw	v0,4(s0)
    2ee8:	0c001d43 	jal	750c <OS_CPU_SR_Restore>
    2eec:	af907b70 	sw	s0,31600(gp)
    2ef0:	16400015 	bnez	s2,2f48 <OSQDel+0x154>
    2ef4:	00000000 	nop
    2ef8:	a2200000 	sb	zero,0(s1)
    2efc:	1000ffca 	b	2e28 <OSQDel+0x34>
    2f00:	00008025 	move	s0,zero
    2f04:	8fa40010 	lw	a0,16(sp)
    2f08:	0c001d43 	jal	750c <OS_CPU_SR_Restore>
    2f0c:	00000000 	nop
    2f10:	24020007 	li	v0,7
    2f14:	1000ffc4 	b	2e28 <OSQDel+0x34>
    2f18:	a2220000 	sb	v0,0(s1)
    2f1c:	1642fff9 	bne	s2,v0,2f04 <OSQDel+0x110>
    2f20:	00003825 	move	a3,zero
    2f24:	24060004 	li	a2,4
    2f28:	00002825 	move	a1,zero
    2f2c:	0c001924 	jal	6490 <OS_EventTaskRdy>
    2f30:	02002025 	move	a0,s0
    2f34:	9202000a 	lbu	v0,10(s0)
    2f38:	1440fffa 	bnez	v0,2f24 <OSQDel+0x130>
    2f3c:	00003825 	move	a3,zero
    2f40:	1000ffdd 	b	2eb8 <OSQDel+0xc4>
    2f44:	24120001 	li	s2,1
    2f48:	0c001a02 	jal	6808 <OS_Sched>
    2f4c:	00008025 	move	s0,zero
    2f50:	1000ffb5 	b	2e28 <OSQDel+0x34>
    2f54:	a2200000 	sb	zero,0(s1)
    2f58:	3c020000 	lui	v0,0x0
    2f5c:	24427a90 	addiu	v0,v0,31376
    2f60:	8e030004 	lw	v1,4(s0)
    2f64:	ae020014 	sw	v0,20(s0)
    2f68:	8f827b60 	lw	v0,31584(gp)
    2f6c:	8fa40010 	lw	a0,16(sp)
    2f70:	ac620000 	sw	v0,0(v1)
    2f74:	af837b60 	sw	v1,31584(gp)
    2f78:	a2000000 	sb	zero,0(s0)
    2f7c:	8f827b70 	lw	v0,31600(gp)
    2f80:	a6000008 	sh	zero,8(s0)
    2f84:	ae020004 	sw	v0,4(s0)
    2f88:	0c001d43 	jal	750c <OS_CPU_SR_Restore>
    2f8c:	af907b70 	sw	s0,31600(gp)
    2f90:	00008025 	move	s0,zero
    2f94:	1000ffa4 	b	2e28 <OSQDel+0x34>
    2f98:	a2200000 	sb	zero,0(s1)

00002f9c <OSQFlush>:
    2f9c:	27bdffe0 	addiu	sp,sp,-32
    2fa0:	afb00018 	sw	s0,24(sp)
    2fa4:	00808025 	move	s0,a0
    2fa8:	afbf001c 	sw	ra,28(sp)
    2fac:	afa00010 	sw	zero,16(sp)
    2fb0:	0c001d3c 	jal	74f0 <OS_CPU_SR_Save>
    2fb4:	00000000 	nop
    2fb8:	8e030004 	lw	v1,4(s0)
    2fbc:	afa20010 	sw	v0,16(sp)
    2fc0:	8c620004 	lw	v0,4(v1)
    2fc4:	8fa40010 	lw	a0,16(sp)
    2fc8:	ac62000c 	sw	v0,12(v1)
    2fcc:	ac620010 	sw	v0,16(v1)
    2fd0:	0c001d43 	jal	750c <OS_CPU_SR_Restore>
    2fd4:	a4600016 	sh	zero,22(v1)
    2fd8:	8fbf001c 	lw	ra,28(sp)
    2fdc:	8fb00018 	lw	s0,24(sp)
    2fe0:	00001025 	move	v0,zero
    2fe4:	03e00008 	jr	ra
    2fe8:	27bd0020 	addiu	sp,sp,32

00002fec <OSQPend>:
    2fec:	27bdffd0 	addiu	sp,sp,-48
    2ff0:	afbf002c 	sw	ra,44(sp)
    2ff4:	afb30028 	sw	s3,40(sp)
    2ff8:	afb20024 	sw	s2,36(sp)
    2ffc:	afb10020 	sw	s1,32(sp)
    3000:	afb0001c 	sw	s0,28(sp)
    3004:	90910000 	lbu	s1,0(a0)
    3008:	24020002 	li	v0,2
    300c:	afa00010 	sw	zero,16(sp)
    3010:	16220021 	bne	s1,v0,3098 <OSQPend+0xac>
    3014:	93827b74 	lbu	v0,31604(gp)
    3018:	1440005e 	bnez	v0,3194 <OSQPend+0x1a8>
    301c:	00000000 	nop
    3020:	93827b28 	lbu	v0,31528(gp)
    3024:	1440004e 	bnez	v0,3160 <OSQPend+0x174>
    3028:	00808025 	move	s0,a0
    302c:	00c09025 	move	s2,a2
    3030:	0c001d3c 	jal	74f0 <OS_CPU_SR_Save>
    3034:	00a09825 	move	s3,a1
    3038:	8e030004 	lw	v1,4(s0)
    303c:	afa20010 	sw	v0,16(sp)
    3040:	94620016 	lhu	v0,22(v1)
    3044:	1040001e 	beqz	v0,30c0 <OSQPend+0xd4>
    3048:	2442ffff 	addiu	v0,v0,-1
    304c:	8c650010 	lw	a1,16(v1)
    3050:	8c660008 	lw	a2,8(v1)
    3054:	24a40004 	addiu	a0,a1,4
    3058:	ac640010 	sw	a0,16(v1)
    305c:	8cb00000 	lw	s0,0(a1)
    3060:	10860049 	beq	a0,a2,3188 <OSQPend+0x19c>
    3064:	a4620016 	sh	v0,22(v1)
    3068:	8fa40010 	lw	a0,16(sp)
    306c:	0c001d43 	jal	750c <OS_CPU_SR_Restore>
    3070:	00000000 	nop
    3074:	a2400000 	sb	zero,0(s2)
    3078:	02001025 	move	v0,s0
    307c:	8fbf002c 	lw	ra,44(sp)
    3080:	8fb30028 	lw	s3,40(sp)
    3084:	8fb20024 	lw	s2,36(sp)
    3088:	8fb10020 	lw	s1,32(sp)
    308c:	8fb0001c 	lw	s0,28(sp)
    3090:	03e00008 	jr	ra
    3094:	27bd0030 	addiu	sp,sp,48
    3098:	24020001 	li	v0,1
    309c:	a0c20000 	sb	v0,0(a2)
    30a0:	8fbf002c 	lw	ra,44(sp)
    30a4:	8fb30028 	lw	s3,40(sp)
    30a8:	8fb20024 	lw	s2,36(sp)
    30ac:	8fb10020 	lw	s1,32(sp)
    30b0:	8fb0001c 	lw	s0,28(sp)
    30b4:	00001025 	move	v0,zero
    30b8:	03e00008 	jr	ra
    30bc:	27bd0030 	addiu	sp,sp,48
    30c0:	8f827b78 	lw	v0,31608(gp)
    30c4:	02002025 	move	a0,s0
    30c8:	90430034 	lbu	v1,52(v0)
    30cc:	ac530030 	sw	s3,48(v0)
    30d0:	34630004 	ori	v1,v1,0x4
    30d4:	a0430034 	sb	v1,52(v0)
    30d8:	0c001979 	jal	65e4 <OS_EventTaskWait>
    30dc:	a0400035 	sb	zero,53(v0)
    30e0:	8fa40010 	lw	a0,16(sp)
    30e4:	0c001d43 	jal	750c <OS_CPU_SR_Restore>
    30e8:	00000000 	nop
    30ec:	0c001a02 	jal	6808 <OS_Sched>
    30f0:	00000000 	nop
    30f4:	0c001d3c 	jal	74f0 <OS_CPU_SR_Save>
    30f8:	00000000 	nop
    30fc:	8f847b78 	lw	a0,31608(gp)
    3100:	afa20010 	sw	v0,16(sp)
    3104:	90820035 	lbu	v0,53(a0)
    3108:	1040002b 	beqz	v0,31b8 <OSQPend+0x1cc>
    310c:	00000000 	nop
    3110:	14510023 	bne	v0,s1,31a0 <OSQPend+0x1b4>
    3114:	2402000e 	li	v0,14
    3118:	a2420000 	sb	v0,0(s2)
    311c:	00008025 	move	s0,zero
    3120:	8f827b78 	lw	v0,31608(gp)
    3124:	8fa40010 	lw	a0,16(sp)
    3128:	a0400034 	sb	zero,52(v0)
    312c:	a0400035 	sb	zero,53(v0)
    3130:	ac40001c 	sw	zero,28(v0)
    3134:	ac400020 	sw	zero,32(v0)
    3138:	0c001d43 	jal	750c <OS_CPU_SR_Restore>
    313c:	ac400024 	sw	zero,36(v0)
    3140:	8fbf002c 	lw	ra,44(sp)
    3144:	02001025 	move	v0,s0
    3148:	8fb30028 	lw	s3,40(sp)
    314c:	8fb20024 	lw	s2,36(sp)
    3150:	8fb10020 	lw	s1,32(sp)
    3154:	8fb0001c 	lw	s0,28(sp)
    3158:	03e00008 	jr	ra
    315c:	27bd0030 	addiu	sp,sp,48
    3160:	2402000d 	li	v0,13
    3164:	a0c20000 	sb	v0,0(a2)
    3168:	8fbf002c 	lw	ra,44(sp)
    316c:	8fb30028 	lw	s3,40(sp)
    3170:	8fb20024 	lw	s2,36(sp)
    3174:	8fb10020 	lw	s1,32(sp)
    3178:	8fb0001c 	lw	s0,28(sp)
    317c:	00001025 	move	v0,zero
    3180:	03e00008 	jr	ra
    3184:	27bd0030 	addiu	sp,sp,48
    3188:	8c620004 	lw	v0,4(v1)
    318c:	1000ffb6 	b	3068 <OSQPend+0x7c>
    3190:	ac620010 	sw	v0,16(v1)
    3194:	a0d10000 	sb	s1,0(a2)
    3198:	1000ffb8 	b	307c <OSQPend+0x90>
    319c:	00001025 	move	v0,zero
    31a0:	0c0019ba 	jal	66e8 <OS_EventTaskRemove>
    31a4:	02002825 	move	a1,s0
    31a8:	2402000a 	li	v0,10
    31ac:	a2420000 	sb	v0,0(s2)
    31b0:	1000ffdb 	b	3120 <OSQPend+0x134>
    31b4:	00008025 	move	s0,zero
    31b8:	8c900024 	lw	s0,36(a0)
    31bc:	1000ffd8 	b	3120 <OSQPend+0x134>
    31c0:	a2400000 	sb	zero,0(s2)

000031c4 <OSQPendAbort>:
    31c4:	27bdffd0 	addiu	sp,sp,-48
    31c8:	afbf002c 	sw	ra,44(sp)
    31cc:	afb20028 	sw	s2,40(sp)
    31d0:	afb10024 	sw	s1,36(sp)
    31d4:	afb00020 	sw	s0,32(sp)
    31d8:	90830000 	lbu	v1,0(a0)
    31dc:	24020002 	li	v0,2
    31e0:	afa00010 	sw	zero,16(sp)
    31e4:	10620009 	beq	v1,v0,320c <OSQPendAbort+0x48>
    31e8:	24020001 	li	v0,1
    31ec:	a0c20000 	sb	v0,0(a2)
    31f0:	00001025 	move	v0,zero
    31f4:	8fbf002c 	lw	ra,44(sp)
    31f8:	8fb20028 	lw	s2,40(sp)
    31fc:	8fb10024 	lw	s1,36(sp)
    3200:	8fb00020 	lw	s0,32(sp)
    3204:	03e00008 	jr	ra
    3208:	27bd0030 	addiu	sp,sp,48
    320c:	00808825 	move	s1,a0
    3210:	30b000ff 	andi	s0,a1,0xff
    3214:	0c001d3c 	jal	74f0 <OS_CPU_SR_Save>
    3218:	00c09025 	move	s2,a2
    321c:	00401825 	move	v1,v0
    3220:	9222000a 	lbu	v0,10(s1)
    3224:	afa30010 	sw	v1,16(sp)
    3228:	1040001c 	beqz	v0,329c <OSQPendAbort+0xd8>
    322c:	00000000 	nop
    3230:	24020001 	li	v0,1
    3234:	1602001f 	bne	s0,v0,32b4 <OSQPendAbort+0xf0>
    3238:	24070002 	li	a3,2
    323c:	00008025 	move	s0,zero
    3240:	24070002 	li	a3,2
    3244:	24060004 	li	a2,4
    3248:	00002825 	move	a1,zero
    324c:	0c001924 	jal	6490 <OS_EventTaskRdy>
    3250:	02202025 	move	a0,s1
    3254:	9223000a 	lbu	v1,10(s1)
    3258:	26020001 	addiu	v0,s0,1
    325c:	1460fff8 	bnez	v1,3240 <OSQPendAbort+0x7c>
    3260:	305000ff 	andi	s0,v0,0xff
    3264:	8fa40010 	lw	a0,16(sp)
    3268:	0c001d43 	jal	750c <OS_CPU_SR_Restore>
    326c:	00000000 	nop
    3270:	0c001a02 	jal	6808 <OS_Sched>
    3274:	00000000 	nop
    3278:	2402000e 	li	v0,14
    327c:	a2420000 	sb	v0,0(s2)
    3280:	8fbf002c 	lw	ra,44(sp)
    3284:	02001025 	move	v0,s0
    3288:	8fb20028 	lw	s2,40(sp)
    328c:	8fb10024 	lw	s1,36(sp)
    3290:	8fb00020 	lw	s0,32(sp)
    3294:	03e00008 	jr	ra
    3298:	27bd0030 	addiu	sp,sp,48
    329c:	8fa40010 	lw	a0,16(sp)
    32a0:	0c001d43 	jal	750c <OS_CPU_SR_Restore>
    32a4:	afa20018 	sw	v0,24(sp)
    32a8:	a2400000 	sb	zero,0(s2)
    32ac:	1000ffd1 	b	31f4 <OSQPendAbort+0x30>
    32b0:	8fa20018 	lw	v0,24(sp)
    32b4:	24060004 	li	a2,4
    32b8:	00002825 	move	a1,zero
    32bc:	0c001924 	jal	6490 <OS_EventTaskRdy>
    32c0:	02202025 	move	a0,s1
    32c4:	1000ffe7 	b	3264 <OSQPendAbort+0xa0>
    32c8:	24100001 	li	s0,1

000032cc <OSQPost>:
    32cc:	27bdffd0 	addiu	sp,sp,-48
    32d0:	afbf002c 	sw	ra,44(sp)
    32d4:	afb10028 	sw	s1,40(sp)
    32d8:	afb00024 	sw	s0,36(sp)
    32dc:	90830000 	lbu	v1,0(a0)
    32e0:	24020002 	li	v0,2
    32e4:	afa00010 	sw	zero,16(sp)
    32e8:	10620006 	beq	v1,v0,3304 <OSQPost+0x38>
    32ec:	24020001 	li	v0,1
    32f0:	8fbf002c 	lw	ra,44(sp)
    32f4:	8fb10028 	lw	s1,40(sp)
    32f8:	8fb00024 	lw	s0,36(sp)
    32fc:	03e00008 	jr	ra
    3300:	27bd0030 	addiu	sp,sp,48
    3304:	00808025 	move	s0,a0
    3308:	0c001d3c 	jal	74f0 <OS_CPU_SR_Save>
    330c:	00a08825 	move	s1,a1
    3310:	00401825 	move	v1,v0
    3314:	9202000a 	lbu	v0,10(s0)
    3318:	afa30010 	sw	v1,16(sp)
    331c:	1440001a 	bnez	v0,3388 <OSQPost+0xbc>
    3320:	00003825 	move	a3,zero
    3324:	8e030004 	lw	v1,4(s0)
    3328:	94650016 	lhu	a1,22(v1)
    332c:	94640014 	lhu	a0,20(v1)
    3330:	00a4202b 	sltu	a0,a1,a0
    3334:	1080000f 	beqz	a0,3374 <OSQPost+0xa8>
    3338:	00000000 	nop
    333c:	8c64000c 	lw	a0,12(v1)
    3340:	24a50001 	addiu	a1,a1,1
    3344:	24860004 	addiu	a2,a0,4
    3348:	ac66000c 	sw	a2,12(v1)
    334c:	ac910000 	sw	s1,0(a0)
    3350:	8c66000c 	lw	a2,12(v1)
    3354:	8c640008 	lw	a0,8(v1)
    3358:	10c40016 	beq	a2,a0,33b4 <OSQPost+0xe8>
    335c:	a4650016 	sh	a1,22(v1)
    3360:	8fa40010 	lw	a0,16(sp)
    3364:	0c001d43 	jal	750c <OS_CPU_SR_Restore>
    3368:	afa20018 	sw	v0,24(sp)
    336c:	1000ffe0 	b	32f0 <OSQPost+0x24>
    3370:	8fa20018 	lw	v0,24(sp)
    3374:	8fa40010 	lw	a0,16(sp)
    3378:	0c001d43 	jal	750c <OS_CPU_SR_Restore>
    337c:	00000000 	nop
    3380:	1000ffdb 	b	32f0 <OSQPost+0x24>
    3384:	2402001e 	li	v0,30
    3388:	24060004 	li	a2,4
    338c:	02202825 	move	a1,s1
    3390:	0c001924 	jal	6490 <OS_EventTaskRdy>
    3394:	02002025 	move	a0,s0
    3398:	8fa40010 	lw	a0,16(sp)
    339c:	0c001d43 	jal	750c <OS_CPU_SR_Restore>
    33a0:	00000000 	nop
    33a4:	0c001a02 	jal	6808 <OS_Sched>
    33a8:	00000000 	nop
    33ac:	1000ffd0 	b	32f0 <OSQPost+0x24>
    33b0:	00001025 	move	v0,zero
    33b4:	8c640004 	lw	a0,4(v1)
    33b8:	1000ffe9 	b	3360 <OSQPost+0x94>
    33bc:	ac64000c 	sw	a0,12(v1)

000033c0 <OSQPostFront>:
    33c0:	27bdffd0 	addiu	sp,sp,-48
    33c4:	afbf002c 	sw	ra,44(sp)
    33c8:	afb10028 	sw	s1,40(sp)
    33cc:	afb00024 	sw	s0,36(sp)
    33d0:	90830000 	lbu	v1,0(a0)
    33d4:	24020002 	li	v0,2
    33d8:	afa00010 	sw	zero,16(sp)
    33dc:	10620006 	beq	v1,v0,33f8 <OSQPostFront+0x38>
    33e0:	24020001 	li	v0,1
    33e4:	8fbf002c 	lw	ra,44(sp)
    33e8:	8fb10028 	lw	s1,40(sp)
    33ec:	8fb00024 	lw	s0,36(sp)
    33f0:	03e00008 	jr	ra
    33f4:	27bd0030 	addiu	sp,sp,48
    33f8:	00808025 	move	s0,a0
    33fc:	0c001d3c 	jal	74f0 <OS_CPU_SR_Save>
    3400:	00a08825 	move	s1,a1
    3404:	00401825 	move	v1,v0
    3408:	9202000a 	lbu	v0,10(s0)
    340c:	afa30010 	sw	v1,16(sp)
    3410:	1440001a 	bnez	v0,347c <OSQPostFront+0xbc>
    3414:	00003825 	move	a3,zero
    3418:	8e030004 	lw	v1,4(s0)
    341c:	94650016 	lhu	a1,22(v1)
    3420:	94640014 	lhu	a0,20(v1)
    3424:	00a4202b 	sltu	a0,a1,a0
    3428:	1080000f 	beqz	a0,3468 <OSQPostFront+0xa8>
    342c:	00000000 	nop
    3430:	8c660010 	lw	a2,16(v1)
    3434:	8c640004 	lw	a0,4(v1)
    3438:	10c4001b 	beq	a2,a0,34a8 <OSQPostFront+0xe8>
    343c:	00000000 	nop
    3440:	24c7fffc 	addiu	a3,a2,-4
    3444:	24a50001 	addiu	a1,a1,1
    3448:	8fa40010 	lw	a0,16(sp)
    344c:	ac670010 	sw	a3,16(v1)
    3450:	acd1fffc 	sw	s1,-4(a2)
    3454:	a4650016 	sh	a1,22(v1)
    3458:	0c001d43 	jal	750c <OS_CPU_SR_Restore>
    345c:	afa20018 	sw	v0,24(sp)
    3460:	1000ffe0 	b	33e4 <OSQPostFront+0x24>
    3464:	8fa20018 	lw	v0,24(sp)
    3468:	8fa40010 	lw	a0,16(sp)
    346c:	0c001d43 	jal	750c <OS_CPU_SR_Restore>
    3470:	00000000 	nop
    3474:	1000ffdb 	b	33e4 <OSQPostFront+0x24>
    3478:	2402001e 	li	v0,30
    347c:	24060004 	li	a2,4
    3480:	02202825 	move	a1,s1
    3484:	0c001924 	jal	6490 <OS_EventTaskRdy>
    3488:	02002025 	move	a0,s0
    348c:	8fa40010 	lw	a0,16(sp)
    3490:	0c001d43 	jal	750c <OS_CPU_SR_Restore>
    3494:	00000000 	nop
    3498:	0c001a02 	jal	6808 <OS_Sched>
    349c:	00000000 	nop
    34a0:	1000ffd0 	b	33e4 <OSQPostFront+0x24>
    34a4:	00001025 	move	v0,zero
    34a8:	1000ffe5 	b	3440 <OSQPostFront+0x80>
    34ac:	8c660008 	lw	a2,8(v1)

000034b0 <OSQPostOpt>:
    34b0:	27bdffd0 	addiu	sp,sp,-48
    34b4:	afbf002c 	sw	ra,44(sp)
    34b8:	afb20028 	sw	s2,40(sp)
    34bc:	afb10024 	sw	s1,36(sp)
    34c0:	afb00020 	sw	s0,32(sp)
    34c4:	90830000 	lbu	v1,0(a0)
    34c8:	24020002 	li	v0,2
    34cc:	afa00010 	sw	zero,16(sp)
    34d0:	10620007 	beq	v1,v0,34f0 <OSQPostOpt+0x40>
    34d4:	24020001 	li	v0,1
    34d8:	8fbf002c 	lw	ra,44(sp)
    34dc:	8fb20028 	lw	s2,40(sp)
    34e0:	8fb10024 	lw	s1,36(sp)
    34e4:	8fb00020 	lw	s0,32(sp)
    34e8:	03e00008 	jr	ra
    34ec:	27bd0030 	addiu	sp,sp,48
    34f0:	00808025 	move	s0,a0
    34f4:	30d200ff 	andi	s2,a2,0xff
    34f8:	0c001d3c 	jal	74f0 <OS_CPU_SR_Save>
    34fc:	00a08825 	move	s1,a1
    3500:	00401825 	move	v1,v0
    3504:	9202000a 	lbu	v0,10(s0)
    3508:	afa30010 	sw	v1,16(sp)
    350c:	10400014 	beqz	v0,3560 <OSQPostOpt+0xb0>
    3510:	00000000 	nop
    3514:	32420001 	andi	v0,s2,0x1
    3518:	10400039 	beqz	v0,3600 <OSQPostOpt+0x150>
    351c:	00003825 	move	a3,zero
    3520:	24060004 	li	a2,4
    3524:	02202825 	move	a1,s1
    3528:	0c001924 	jal	6490 <OS_EventTaskRdy>
    352c:	02002025 	move	a0,s0
    3530:	9202000a 	lbu	v0,10(s0)
    3534:	1440fffa 	bnez	v0,3520 <OSQPostOpt+0x70>
    3538:	00003825 	move	a3,zero
    353c:	8fa40010 	lw	a0,16(sp)
    3540:	0c001d43 	jal	750c <OS_CPU_SR_Restore>
    3544:	00000000 	nop
    3548:	32420004 	andi	v0,s2,0x4
    354c:	304200ff 	andi	v0,v0,0xff
    3550:	10400027 	beqz	v0,35f0 <OSQPostOpt+0x140>
    3554:	00000000 	nop
    3558:	1000ffdf 	b	34d8 <OSQPostOpt+0x28>
    355c:	00001025 	move	v0,zero
    3560:	8e050004 	lw	a1,4(s0)
    3564:	94a60016 	lhu	a2,22(a1)
    3568:	94a30014 	lhu	v1,20(a1)
    356c:	00c3182b 	sltu	v1,a2,v1
    3570:	1060001a 	beqz	v1,35dc <OSQPostOpt+0x12c>
    3574:	32430002 	andi	v1,s2,0x2
    3578:	10600009 	beqz	v1,35a0 <OSQPostOpt+0xf0>
    357c:	00000000 	nop
    3580:	8ca30010 	lw	v1,16(a1)
    3584:	8ca40004 	lw	a0,4(a1)
    3588:	10640026 	beq	v1,a0,3624 <OSQPostOpt+0x174>
    358c:	00000000 	nop
    3590:	2464fffc 	addiu	a0,v1,-4
    3594:	aca40010 	sw	a0,16(a1)
    3598:	10000009 	b	35c0 <OSQPostOpt+0x110>
    359c:	ac71fffc 	sw	s1,-4(v1)
    35a0:	8ca3000c 	lw	v1,12(a1)
    35a4:	24640004 	addiu	a0,v1,4
    35a8:	aca4000c 	sw	a0,12(a1)
    35ac:	ac710000 	sw	s1,0(v1)
    35b0:	8ca4000c 	lw	a0,12(a1)
    35b4:	8ca30008 	lw	v1,8(a1)
    35b8:	10830017 	beq	a0,v1,3618 <OSQPostOpt+0x168>
    35bc:	00000000 	nop
    35c0:	24c60001 	addiu	a2,a2,1
    35c4:	8fa40010 	lw	a0,16(sp)
    35c8:	a4a60016 	sh	a2,22(a1)
    35cc:	0c001d43 	jal	750c <OS_CPU_SR_Restore>
    35d0:	afa20018 	sw	v0,24(sp)
    35d4:	1000ffc0 	b	34d8 <OSQPostOpt+0x28>
    35d8:	8fa20018 	lw	v0,24(sp)
    35dc:	8fa40010 	lw	a0,16(sp)
    35e0:	0c001d43 	jal	750c <OS_CPU_SR_Restore>
    35e4:	00000000 	nop
    35e8:	1000ffbb 	b	34d8 <OSQPostOpt+0x28>
    35ec:	2402001e 	li	v0,30
    35f0:	0c001a02 	jal	6808 <OS_Sched>
    35f4:	afa20018 	sw	v0,24(sp)
    35f8:	1000ffb7 	b	34d8 <OSQPostOpt+0x28>
    35fc:	8fa20018 	lw	v0,24(sp)
    3600:	24060004 	li	a2,4
    3604:	02202825 	move	a1,s1
    3608:	0c001924 	jal	6490 <OS_EventTaskRdy>
    360c:	02002025 	move	a0,s0
    3610:	1000ffca 	b	353c <OSQPostOpt+0x8c>
    3614:	00000000 	nop
    3618:	8ca30004 	lw	v1,4(a1)
    361c:	1000ffe8 	b	35c0 <OSQPostOpt+0x110>
    3620:	aca3000c 	sw	v1,12(a1)
    3624:	1000ffda 	b	3590 <OSQPostOpt+0xe0>
    3628:	8ca30008 	lw	v1,8(a1)

0000362c <OSQQuery>:
    362c:	27bdffd8 	addiu	sp,sp,-40
    3630:	afbf0024 	sw	ra,36(sp)
    3634:	afb10020 	sw	s1,32(sp)
    3638:	afb0001c 	sw	s0,28(sp)
    363c:	90830000 	lbu	v1,0(a0)
    3640:	24020002 	li	v0,2
    3644:	afa00010 	sw	zero,16(sp)
    3648:	10620006 	beq	v1,v0,3664 <OSQQuery+0x38>
    364c:	8fbf0024 	lw	ra,36(sp)
    3650:	8fb10020 	lw	s1,32(sp)
    3654:	8fb0001c 	lw	s0,28(sp)
    3658:	24020001 	li	v0,1
    365c:	03e00008 	jr	ra
    3660:	27bd0028 	addiu	sp,sp,40
    3664:	00808025 	move	s0,a0
    3668:	0c001d3c 	jal	74f0 <OS_CPU_SR_Save>
    366c:	00a08825 	move	s1,a1
    3670:	9203000a 	lbu	v1,10(s0)
    3674:	afa20010 	sw	v0,16(sp)
    3678:	a2230010 	sb	v1,16(s1)
    367c:	2602000b 	addiu	v0,s0,11
    3680:	26230008 	addiu	v1,s1,8
    3684:	26050013 	addiu	a1,s0,19
    3688:	24420001 	addiu	v0,v0,1
    368c:	9044ffff 	lbu	a0,-1(v0)
    3690:	24630001 	addiu	v1,v1,1
    3694:	14a2fffc 	bne	a1,v0,3688 <OSQQuery+0x5c>
    3698:	a064ffff 	sb	a0,-1(v1)
    369c:	8e020004 	lw	v0,4(s0)
    36a0:	94430016 	lhu	v1,22(v0)
    36a4:	1060000f 	beqz	v1,36e4 <OSQQuery+0xb8>
    36a8:	00000000 	nop
    36ac:	8c440010 	lw	a0,16(v0)
    36b0:	8c840000 	lw	a0,0(a0)
    36b4:	ae240000 	sw	a0,0(s1)
    36b8:	94420014 	lhu	v0,20(v0)
    36bc:	8fa40010 	lw	a0,16(sp)
    36c0:	a6220006 	sh	v0,6(s1)
    36c4:	0c001d43 	jal	750c <OS_CPU_SR_Restore>
    36c8:	a6230004 	sh	v1,4(s1)
    36cc:	8fbf0024 	lw	ra,36(sp)
    36d0:	8fb10020 	lw	s1,32(sp)
    36d4:	8fb0001c 	lw	s0,28(sp)
    36d8:	00001025 	move	v0,zero
    36dc:	03e00008 	jr	ra
    36e0:	27bd0028 	addiu	sp,sp,40
    36e4:	1000fff4 	b	36b8 <OSQQuery+0x8c>
    36e8:	ae200000 	sw	zero,0(s1)

000036ec <OS_QInit>:
    36ec:	27bdffe8 	addiu	sp,sp,-24
    36f0:	afb00010 	sw	s0,16(sp)
    36f4:	3c100001 	lui	s0,0x1
    36f8:	26048d90 	addiu	a0,s0,-29296
    36fc:	afbf0014 	sw	ra,20(sp)
    3700:	0c0019e8 	jal	67a0 <OS_MemClr>
    3704:	24050060 	li	a1,96
    3708:	3c030001 	lui	v1,0x1
    370c:	24638da8 	addiu	v1,v1,-29272
    3710:	ae038d90 	sw	v1,-29296(s0)
    3714:	3c030001 	lui	v1,0x1
    3718:	26028d90 	addiu	v0,s0,-29296
    371c:	24638dc0 	addiu	v1,v1,-29248
    3720:	8fbf0014 	lw	ra,20(sp)
    3724:	ac430018 	sw	v1,24(v0)
    3728:	3c030001 	lui	v1,0x1
    372c:	24638dd8 	addiu	v1,v1,-29224
    3730:	8fb00010 	lw	s0,16(sp)
    3734:	ac430030 	sw	v1,48(v0)
    3738:	ac400048 	sw	zero,72(v0)
    373c:	af827b60 	sw	v0,31584(gp)
    3740:	03e00008 	jr	ra
    3744:	27bd0018 	addiu	sp,sp,24

00003748 <OSSemAccept>:
    3748:	27bdffd8 	addiu	sp,sp,-40
    374c:	afbf0024 	sw	ra,36(sp)
    3750:	afb10020 	sw	s1,32(sp)
    3754:	afb0001c 	sw	s0,28(sp)
    3758:	90830000 	lbu	v1,0(a0)
    375c:	24020003 	li	v0,3
    3760:	afa00010 	sw	zero,16(sp)
    3764:	10620006 	beq	v1,v0,3780 <OSSemAccept+0x38>
    3768:	8fbf0024 	lw	ra,36(sp)
    376c:	8fb10020 	lw	s1,32(sp)
    3770:	8fb0001c 	lw	s0,28(sp)
    3774:	00001025 	move	v0,zero
    3778:	03e00008 	jr	ra
    377c:	27bd0028 	addiu	sp,sp,40
    3780:	0c001d3c 	jal	74f0 <OS_CPU_SR_Save>
    3784:	00808825 	move	s1,a0
    3788:	96300008 	lhu	s0,8(s1)
    378c:	afa20010 	sw	v0,16(sp)
    3790:	12000002 	beqz	s0,379c <OSSemAccept+0x54>
    3794:	2602ffff 	addiu	v0,s0,-1
    3798:	a6220008 	sh	v0,8(s1)
    379c:	8fa40010 	lw	a0,16(sp)
    37a0:	0c001d43 	jal	750c <OS_CPU_SR_Restore>
    37a4:	00000000 	nop
    37a8:	8fbf0024 	lw	ra,36(sp)
    37ac:	02001025 	move	v0,s0
    37b0:	8fb10020 	lw	s1,32(sp)
    37b4:	8fb0001c 	lw	s0,28(sp)
    37b8:	03e00008 	jr	ra
    37bc:	27bd0028 	addiu	sp,sp,40

000037c0 <OSSemCreate>:
    37c0:	93827b74 	lbu	v0,31604(gp)
    37c4:	27bdffd8 	addiu	sp,sp,-40
    37c8:	afbf0024 	sw	ra,36(sp)
    37cc:	afb10020 	sw	s1,32(sp)
    37d0:	afb0001c 	sw	s0,28(sp)
    37d4:	afa00010 	sw	zero,16(sp)
    37d8:	1440001d 	bnez	v0,3850 <OSSemCreate+0x90>
    37dc:	8fbf0024 	lw	ra,36(sp)
    37e0:	0c001d3c 	jal	74f0 <OS_CPU_SR_Save>
    37e4:	3091ffff 	andi	s1,a0,0xffff
    37e8:	8f907b70 	lw	s0,31600(gp)
    37ec:	afa20010 	sw	v0,16(sp)
    37f0:	8fa40010 	lw	a0,16(sp)
    37f4:	12000013 	beqz	s0,3844 <OSSemCreate+0x84>
    37f8:	00000000 	nop
    37fc:	8e020004 	lw	v0,4(s0)
    3800:	0c001d43 	jal	750c <OS_CPU_SR_Restore>
    3804:	af827b70 	sw	v0,31600(gp)
    3808:	24020003 	li	v0,3
    380c:	a2020000 	sb	v0,0(s0)
    3810:	3c020000 	lui	v0,0x0
    3814:	24427a90 	addiu	v0,v0,31376
    3818:	a6110008 	sh	s1,8(s0)
    381c:	ae020014 	sw	v0,20(s0)
    3820:	ae000004 	sw	zero,4(s0)
    3824:	0c0019df 	jal	677c <OS_EventWaitListInit>
    3828:	02002025 	move	a0,s0
    382c:	8fbf0024 	lw	ra,36(sp)
    3830:	02001025 	move	v0,s0
    3834:	8fb10020 	lw	s1,32(sp)
    3838:	8fb0001c 	lw	s0,28(sp)
    383c:	03e00008 	jr	ra
    3840:	27bd0028 	addiu	sp,sp,40
    3844:	0c001d43 	jal	750c <OS_CPU_SR_Restore>
    3848:	00000000 	nop
    384c:	8fbf0024 	lw	ra,36(sp)
    3850:	8fb10020 	lw	s1,32(sp)
    3854:	8fb0001c 	lw	s0,28(sp)
    3858:	00001025 	move	v0,zero
    385c:	03e00008 	jr	ra
    3860:	27bd0028 	addiu	sp,sp,40

00003864 <OSSemDel>:
    3864:	27bdffd8 	addiu	sp,sp,-40
    3868:	afb1001c 	sw	s1,28(sp)
    386c:	afb00018 	sw	s0,24(sp)
    3870:	afbf0024 	sw	ra,36(sp)
    3874:	afb20020 	sw	s2,32(sp)
    3878:	90830000 	lbu	v1,0(a0)
    387c:	24020003 	li	v0,3
    3880:	00808025 	move	s0,a0
    3884:	00c08825 	move	s1,a2
    3888:	afa00010 	sw	zero,16(sp)
    388c:	10620009 	beq	v1,v0,38b4 <OSSemDel+0x50>
    3890:	24020001 	li	v0,1
    3894:	a0c20000 	sb	v0,0(a2)
    3898:	8fbf0024 	lw	ra,36(sp)
    389c:	02001025 	move	v0,s0
    38a0:	8fb20020 	lw	s2,32(sp)
    38a4:	8fb1001c 	lw	s1,28(sp)
    38a8:	8fb00018 	lw	s0,24(sp)
    38ac:	03e00008 	jr	ra
    38b0:	27bd0028 	addiu	sp,sp,40
    38b4:	93827b74 	lbu	v0,31604(gp)
    38b8:	10400009 	beqz	v0,38e0 <OSSemDel+0x7c>
    38bc:	2402000f 	li	v0,15
    38c0:	a0c20000 	sb	v0,0(a2)
    38c4:	8fbf0024 	lw	ra,36(sp)
    38c8:	02001025 	move	v0,s0
    38cc:	8fb20020 	lw	s2,32(sp)
    38d0:	8fb1001c 	lw	s1,28(sp)
    38d4:	8fb00018 	lw	s0,24(sp)
    38d8:	03e00008 	jr	ra
    38dc:	27bd0028 	addiu	sp,sp,40
    38e0:	0c001d3c 	jal	74f0 <OS_CPU_SR_Save>
    38e4:	30b200ff 	andi	s2,a1,0xff
    38e8:	9203000a 	lbu	v1,10(s0)
    38ec:	afa20010 	sw	v0,16(sp)
    38f0:	10600009 	beqz	v1,3918 <OSSemDel+0xb4>
    38f4:	00000000 	nop
    38f8:	16400020 	bnez	s2,397c <OSSemDel+0x118>
    38fc:	24020001 	li	v0,1
    3900:	8fa40010 	lw	a0,16(sp)
    3904:	0c001d43 	jal	750c <OS_CPU_SR_Restore>
    3908:	00000000 	nop
    390c:	24020049 	li	v0,73
    3910:	1000ffe1 	b	3898 <OSSemDel+0x34>
    3914:	a2220000 	sb	v0,0(s1)
    3918:	12400027 	beqz	s2,39b8 <OSSemDel+0x154>
    391c:	24020001 	li	v0,1
    3920:	16420010 	bne	s2,v0,3964 <OSSemDel+0x100>
    3924:	00009025 	move	s2,zero
    3928:	3c020000 	lui	v0,0x0
    392c:	a2000000 	sb	zero,0(s0)
    3930:	24427a90 	addiu	v0,v0,31376
    3934:	ae020014 	sw	v0,20(s0)
    3938:	8f827b70 	lw	v0,31600(gp)
    393c:	8fa40010 	lw	a0,16(sp)
    3940:	ae020004 	sw	v0,4(s0)
    3944:	a6000008 	sh	zero,8(s0)
    3948:	0c001d43 	jal	750c <OS_CPU_SR_Restore>
    394c:	af907b70 	sw	s0,31600(gp)
    3950:	16400015 	bnez	s2,39a8 <OSSemDel+0x144>
    3954:	00000000 	nop
    3958:	a2200000 	sb	zero,0(s1)
    395c:	1000ffce 	b	3898 <OSSemDel+0x34>
    3960:	00008025 	move	s0,zero
    3964:	8fa40010 	lw	a0,16(sp)
    3968:	0c001d43 	jal	750c <OS_CPU_SR_Restore>
    396c:	00000000 	nop
    3970:	24020007 	li	v0,7
    3974:	1000ffc8 	b	3898 <OSSemDel+0x34>
    3978:	a2220000 	sb	v0,0(s1)
    397c:	1642fff9 	bne	s2,v0,3964 <OSSemDel+0x100>
    3980:	00003825 	move	a3,zero
    3984:	24060001 	li	a2,1
    3988:	00002825 	move	a1,zero
    398c:	0c001924 	jal	6490 <OS_EventTaskRdy>
    3990:	02002025 	move	a0,s0
    3994:	9202000a 	lbu	v0,10(s0)
    3998:	1440fffa 	bnez	v0,3984 <OSSemDel+0x120>
    399c:	00003825 	move	a3,zero
    39a0:	1000ffe1 	b	3928 <OSSemDel+0xc4>
    39a4:	24120001 	li	s2,1
    39a8:	0c001a02 	jal	6808 <OS_Sched>
    39ac:	00008025 	move	s0,zero
    39b0:	1000ffb9 	b	3898 <OSSemDel+0x34>
    39b4:	a2200000 	sb	zero,0(s1)
    39b8:	3c020000 	lui	v0,0x0
    39bc:	a2000000 	sb	zero,0(s0)
    39c0:	24427a90 	addiu	v0,v0,31376
    39c4:	ae020014 	sw	v0,20(s0)
    39c8:	8f827b70 	lw	v0,31600(gp)
    39cc:	8fa40010 	lw	a0,16(sp)
    39d0:	ae020004 	sw	v0,4(s0)
    39d4:	a6000008 	sh	zero,8(s0)
    39d8:	0c001d43 	jal	750c <OS_CPU_SR_Restore>
    39dc:	af907b70 	sw	s0,31600(gp)
    39e0:	00008025 	move	s0,zero
    39e4:	1000ffac 	b	3898 <OSSemDel+0x34>
    39e8:	a2200000 	sb	zero,0(s1)

000039ec <OSSemPend>:
    39ec:	27bdffd8 	addiu	sp,sp,-40
    39f0:	afbf0024 	sw	ra,36(sp)
    39f4:	afb20020 	sw	s2,32(sp)
    39f8:	afb1001c 	sw	s1,28(sp)
    39fc:	afb00018 	sw	s0,24(sp)
    3a00:	90830000 	lbu	v1,0(a0)
    3a04:	24020003 	li	v0,3
    3a08:	afa00010 	sw	zero,16(sp)
    3a0c:	10620008 	beq	v1,v0,3a30 <OSSemPend+0x44>
    3a10:	24020001 	li	v0,1
    3a14:	a0c20000 	sb	v0,0(a2)
    3a18:	8fbf0024 	lw	ra,36(sp)
    3a1c:	8fb20020 	lw	s2,32(sp)
    3a20:	8fb1001c 	lw	s1,28(sp)
    3a24:	8fb00018 	lw	s0,24(sp)
    3a28:	03e00008 	jr	ra
    3a2c:	27bd0028 	addiu	sp,sp,40
    3a30:	93827b74 	lbu	v0,31604(gp)
    3a34:	14400031 	bnez	v0,3afc <OSSemPend+0x110>
    3a38:	93827b28 	lbu	v0,31528(gp)
    3a3c:	10400008 	beqz	v0,3a60 <OSSemPend+0x74>
    3a40:	8fbf0024 	lw	ra,36(sp)
    3a44:	2402000d 	li	v0,13
    3a48:	8fb20020 	lw	s2,32(sp)
    3a4c:	8fb1001c 	lw	s1,28(sp)
    3a50:	8fb00018 	lw	s0,24(sp)
    3a54:	a0c20000 	sb	v0,0(a2)
    3a58:	03e00008 	jr	ra
    3a5c:	27bd0028 	addiu	sp,sp,40
    3a60:	00808025 	move	s0,a0
    3a64:	00c08825 	move	s1,a2
    3a68:	0c001d3c 	jal	74f0 <OS_CPU_SR_Save>
    3a6c:	00a09025 	move	s2,a1
    3a70:	96030008 	lhu	v1,8(s0)
    3a74:	afa20010 	sw	v0,16(sp)
    3a78:	1460002a 	bnez	v1,3b24 <OSSemPend+0x138>
    3a7c:	8f827b78 	lw	v0,31608(gp)
    3a80:	02002025 	move	a0,s0
    3a84:	90430034 	lbu	v1,52(v0)
    3a88:	ac520030 	sw	s2,48(v0)
    3a8c:	34630001 	ori	v1,v1,0x1
    3a90:	a0430034 	sb	v1,52(v0)
    3a94:	0c001979 	jal	65e4 <OS_EventTaskWait>
    3a98:	a0400035 	sb	zero,53(v0)
    3a9c:	8fa40010 	lw	a0,16(sp)
    3aa0:	0c001d43 	jal	750c <OS_CPU_SR_Restore>
    3aa4:	00000000 	nop
    3aa8:	0c001a02 	jal	6808 <OS_Sched>
    3aac:	00000000 	nop
    3ab0:	0c001d3c 	jal	74f0 <OS_CPU_SR_Save>
    3ab4:	00000000 	nop
    3ab8:	8f847b78 	lw	a0,31608(gp)
    3abc:	afa20010 	sw	v0,16(sp)
    3ac0:	90820035 	lbu	v0,53(a0)
    3ac4:	10400015 	beqz	v0,3b1c <OSSemPend+0x130>
    3ac8:	24030002 	li	v1,2
    3acc:	1443001b 	bne	v0,v1,3b3c <OSSemPend+0x150>
    3ad0:	2402000e 	li	v0,14
    3ad4:	a2220000 	sb	v0,0(s1)
    3ad8:	8f827b78 	lw	v0,31608(gp)
    3adc:	8fa40010 	lw	a0,16(sp)
    3ae0:	a0400034 	sb	zero,52(v0)
    3ae4:	a0400035 	sb	zero,53(v0)
    3ae8:	ac40001c 	sw	zero,28(v0)
    3aec:	0c001d43 	jal	750c <OS_CPU_SR_Restore>
    3af0:	ac400020 	sw	zero,32(v0)
    3af4:	1000ffc9 	b	3a1c <OSSemPend+0x30>
    3af8:	8fbf0024 	lw	ra,36(sp)
    3afc:	8fbf0024 	lw	ra,36(sp)
    3b00:	24020002 	li	v0,2
    3b04:	8fb20020 	lw	s2,32(sp)
    3b08:	8fb1001c 	lw	s1,28(sp)
    3b0c:	8fb00018 	lw	s0,24(sp)
    3b10:	a0c20000 	sb	v0,0(a2)
    3b14:	03e00008 	jr	ra
    3b18:	27bd0028 	addiu	sp,sp,40
    3b1c:	1000ffee 	b	3ad8 <OSSemPend+0xec>
    3b20:	a2200000 	sb	zero,0(s1)
    3b24:	2463ffff 	addiu	v1,v1,-1
    3b28:	8fa40010 	lw	a0,16(sp)
    3b2c:	0c001d43 	jal	750c <OS_CPU_SR_Restore>
    3b30:	a6030008 	sh	v1,8(s0)
    3b34:	1000ffb8 	b	3a18 <OSSemPend+0x2c>
    3b38:	a2200000 	sb	zero,0(s1)
    3b3c:	0c0019ba 	jal	66e8 <OS_EventTaskRemove>
    3b40:	02002825 	move	a1,s0
    3b44:	2402000a 	li	v0,10
    3b48:	1000ffe3 	b	3ad8 <OSSemPend+0xec>
    3b4c:	a2220000 	sb	v0,0(s1)

00003b50 <OSSemPendAbort>:
    3b50:	27bdffd0 	addiu	sp,sp,-48
    3b54:	afbf002c 	sw	ra,44(sp)
    3b58:	afb20028 	sw	s2,40(sp)
    3b5c:	afb10024 	sw	s1,36(sp)
    3b60:	afb00020 	sw	s0,32(sp)
    3b64:	90830000 	lbu	v1,0(a0)
    3b68:	24020003 	li	v0,3
    3b6c:	afa00010 	sw	zero,16(sp)
    3b70:	10620009 	beq	v1,v0,3b98 <OSSemPendAbort+0x48>
    3b74:	24020001 	li	v0,1
    3b78:	a0c20000 	sb	v0,0(a2)
    3b7c:	00001025 	move	v0,zero
    3b80:	8fbf002c 	lw	ra,44(sp)
    3b84:	8fb20028 	lw	s2,40(sp)
    3b88:	8fb10024 	lw	s1,36(sp)
    3b8c:	8fb00020 	lw	s0,32(sp)
    3b90:	03e00008 	jr	ra
    3b94:	27bd0030 	addiu	sp,sp,48
    3b98:	00808825 	move	s1,a0
    3b9c:	30b000ff 	andi	s0,a1,0xff
    3ba0:	0c001d3c 	jal	74f0 <OS_CPU_SR_Save>
    3ba4:	00c09025 	move	s2,a2
    3ba8:	00401825 	move	v1,v0
    3bac:	9222000a 	lbu	v0,10(s1)
    3bb0:	afa30010 	sw	v1,16(sp)
    3bb4:	1040001c 	beqz	v0,3c28 <OSSemPendAbort+0xd8>
    3bb8:	00000000 	nop
    3bbc:	24020001 	li	v0,1
    3bc0:	1602001f 	bne	s0,v0,3c40 <OSSemPendAbort+0xf0>
    3bc4:	24070002 	li	a3,2
    3bc8:	00008025 	move	s0,zero
    3bcc:	24070002 	li	a3,2
    3bd0:	24060001 	li	a2,1
    3bd4:	00002825 	move	a1,zero
    3bd8:	0c001924 	jal	6490 <OS_EventTaskRdy>
    3bdc:	02202025 	move	a0,s1
    3be0:	9223000a 	lbu	v1,10(s1)
    3be4:	26020001 	addiu	v0,s0,1
    3be8:	1460fff8 	bnez	v1,3bcc <OSSemPendAbort+0x7c>
    3bec:	305000ff 	andi	s0,v0,0xff
    3bf0:	8fa40010 	lw	a0,16(sp)
    3bf4:	0c001d43 	jal	750c <OS_CPU_SR_Restore>
    3bf8:	00000000 	nop
    3bfc:	0c001a02 	jal	6808 <OS_Sched>
    3c00:	00000000 	nop
    3c04:	2402000e 	li	v0,14
    3c08:	a2420000 	sb	v0,0(s2)
    3c0c:	8fbf002c 	lw	ra,44(sp)
    3c10:	02001025 	move	v0,s0
    3c14:	8fb20028 	lw	s2,40(sp)
    3c18:	8fb10024 	lw	s1,36(sp)
    3c1c:	8fb00020 	lw	s0,32(sp)
    3c20:	03e00008 	jr	ra
    3c24:	27bd0030 	addiu	sp,sp,48
    3c28:	8fa40010 	lw	a0,16(sp)
    3c2c:	0c001d43 	jal	750c <OS_CPU_SR_Restore>
    3c30:	afa20018 	sw	v0,24(sp)
    3c34:	a2400000 	sb	zero,0(s2)
    3c38:	1000ffd1 	b	3b80 <OSSemPendAbort+0x30>
    3c3c:	8fa20018 	lw	v0,24(sp)
    3c40:	24060001 	li	a2,1
    3c44:	00002825 	move	a1,zero
    3c48:	0c001924 	jal	6490 <OS_EventTaskRdy>
    3c4c:	02202025 	move	a0,s1
    3c50:	1000ffe7 	b	3bf0 <OSSemPendAbort+0xa0>
    3c54:	24100001 	li	s0,1

00003c58 <OSSemPost>:
    3c58:	27bdffd8 	addiu	sp,sp,-40
    3c5c:	afbf0024 	sw	ra,36(sp)
    3c60:	afb00020 	sw	s0,32(sp)
    3c64:	90830000 	lbu	v1,0(a0)
    3c68:	24020003 	li	v0,3
    3c6c:	afa00010 	sw	zero,16(sp)
    3c70:	10620005 	beq	v1,v0,3c88 <OSSemPost+0x30>
    3c74:	24020001 	li	v0,1
    3c78:	8fbf0024 	lw	ra,36(sp)
    3c7c:	8fb00020 	lw	s0,32(sp)
    3c80:	03e00008 	jr	ra
    3c84:	27bd0028 	addiu	sp,sp,40
    3c88:	0c001d3c 	jal	74f0 <OS_CPU_SR_Save>
    3c8c:	00808025 	move	s0,a0
    3c90:	00401825 	move	v1,v0
    3c94:	9202000a 	lbu	v0,10(s0)
    3c98:	afa30010 	sw	v1,16(sp)
    3c9c:	14400010 	bnez	v0,3ce0 <OSSemPost+0x88>
    3ca0:	00003825 	move	a3,zero
    3ca4:	96030008 	lhu	v1,8(s0)
    3ca8:	3404ffff 	li	a0,0xffff
    3cac:	10640007 	beq	v1,a0,3ccc <OSSemPost+0x74>
    3cb0:	afa20018 	sw	v0,24(sp)
    3cb4:	24630001 	addiu	v1,v1,1
    3cb8:	8fa40010 	lw	a0,16(sp)
    3cbc:	0c001d43 	jal	750c <OS_CPU_SR_Restore>
    3cc0:	a6030008 	sh	v1,8(s0)
    3cc4:	1000ffec 	b	3c78 <OSSemPost+0x20>
    3cc8:	8fa20018 	lw	v0,24(sp)
    3ccc:	8fa40010 	lw	a0,16(sp)
    3cd0:	0c001d43 	jal	750c <OS_CPU_SR_Restore>
    3cd4:	00000000 	nop
    3cd8:	1000ffe7 	b	3c78 <OSSemPost+0x20>
    3cdc:	24020033 	li	v0,51
    3ce0:	24060001 	li	a2,1
    3ce4:	00002825 	move	a1,zero
    3ce8:	0c001924 	jal	6490 <OS_EventTaskRdy>
    3cec:	02002025 	move	a0,s0
    3cf0:	8fa40010 	lw	a0,16(sp)
    3cf4:	0c001d43 	jal	750c <OS_CPU_SR_Restore>
    3cf8:	00000000 	nop
    3cfc:	0c001a02 	jal	6808 <OS_Sched>
    3d00:	00000000 	nop
    3d04:	1000ffdc 	b	3c78 <OSSemPost+0x20>
    3d08:	00001025 	move	v0,zero

00003d0c <OSSemQuery>:
    3d0c:	27bdffd8 	addiu	sp,sp,-40
    3d10:	afbf0024 	sw	ra,36(sp)
    3d14:	afb10020 	sw	s1,32(sp)
    3d18:	afb0001c 	sw	s0,28(sp)
    3d1c:	90830000 	lbu	v1,0(a0)
    3d20:	24020003 	li	v0,3
    3d24:	afa00010 	sw	zero,16(sp)
    3d28:	10620006 	beq	v1,v0,3d44 <OSSemQuery+0x38>
    3d2c:	8fbf0024 	lw	ra,36(sp)
    3d30:	8fb10020 	lw	s1,32(sp)
    3d34:	8fb0001c 	lw	s0,28(sp)
    3d38:	24020001 	li	v0,1
    3d3c:	03e00008 	jr	ra
    3d40:	27bd0028 	addiu	sp,sp,40
    3d44:	00808025 	move	s0,a0
    3d48:	0c001d3c 	jal	74f0 <OS_CPU_SR_Save>
    3d4c:	00a08825 	move	s1,a1
    3d50:	9203000a 	lbu	v1,10(s0)
    3d54:	afa20010 	sw	v0,16(sp)
    3d58:	a223000a 	sb	v1,10(s1)
    3d5c:	2602000b 	addiu	v0,s0,11
    3d60:	26230002 	addiu	v1,s1,2
    3d64:	26050013 	addiu	a1,s0,19
    3d68:	24420001 	addiu	v0,v0,1
    3d6c:	9044ffff 	lbu	a0,-1(v0)
    3d70:	24630001 	addiu	v1,v1,1
    3d74:	14a2fffc 	bne	a1,v0,3d68 <OSSemQuery+0x5c>
    3d78:	a064ffff 	sb	a0,-1(v1)
    3d7c:	96020008 	lhu	v0,8(s0)
    3d80:	8fa40010 	lw	a0,16(sp)
    3d84:	0c001d43 	jal	750c <OS_CPU_SR_Restore>
    3d88:	a6220000 	sh	v0,0(s1)
    3d8c:	8fbf0024 	lw	ra,36(sp)
    3d90:	8fb10020 	lw	s1,32(sp)
    3d94:	8fb0001c 	lw	s0,28(sp)
    3d98:	00001025 	move	v0,zero
    3d9c:	03e00008 	jr	ra
    3da0:	27bd0028 	addiu	sp,sp,40

00003da4 <OSSemSet>:
    3da4:	27bdffd8 	addiu	sp,sp,-40
    3da8:	afbf0024 	sw	ra,36(sp)
    3dac:	afb20020 	sw	s2,32(sp)
    3db0:	afb1001c 	sw	s1,28(sp)
    3db4:	afb00018 	sw	s0,24(sp)
    3db8:	90830000 	lbu	v1,0(a0)
    3dbc:	24020003 	li	v0,3
    3dc0:	afa00010 	sw	zero,16(sp)
    3dc4:	10620008 	beq	v1,v0,3de8 <OSSemSet+0x44>
    3dc8:	8fbf0024 	lw	ra,36(sp)
    3dcc:	24020001 	li	v0,1
    3dd0:	8fb20020 	lw	s2,32(sp)
    3dd4:	8fb1001c 	lw	s1,28(sp)
    3dd8:	8fb00018 	lw	s0,24(sp)
    3ddc:	a0c20000 	sb	v0,0(a2)
    3de0:	03e00008 	jr	ra
    3de4:	27bd0028 	addiu	sp,sp,40
    3de8:	00c08825 	move	s1,a2
    3dec:	00808025 	move	s0,a0
    3df0:	0c001d3c 	jal	74f0 <OS_CPU_SR_Save>
    3df4:	30b2ffff 	andi	s2,a1,0xffff
    3df8:	a2200000 	sb	zero,0(s1)
    3dfc:	96030008 	lhu	v1,8(s0)
    3e00:	afa20010 	sw	v0,16(sp)
    3e04:	14600004 	bnez	v1,3e18 <OSSemSet+0x74>
    3e08:	00000000 	nop
    3e0c:	9202000a 	lbu	v0,10(s0)
    3e10:	1440000b 	bnez	v0,3e40 <OSSemSet+0x9c>
    3e14:	24020049 	li	v0,73
    3e18:	a6120008 	sh	s2,8(s0)
    3e1c:	8fa40010 	lw	a0,16(sp)
    3e20:	0c001d43 	jal	750c <OS_CPU_SR_Restore>
    3e24:	00000000 	nop
    3e28:	8fbf0024 	lw	ra,36(sp)
    3e2c:	8fb20020 	lw	s2,32(sp)
    3e30:	8fb1001c 	lw	s1,28(sp)
    3e34:	8fb00018 	lw	s0,24(sp)
    3e38:	03e00008 	jr	ra
    3e3c:	27bd0028 	addiu	sp,sp,40
    3e40:	1000fff6 	b	3e1c <OSSemSet+0x78>
    3e44:	a2220000 	sb	v0,0(s1)

00003e48 <OSTaskChangePrio>:
    3e48:	27bdffd8 	addiu	sp,sp,-40
    3e4c:	afb10020 	sw	s1,32(sp)
    3e50:	afb0001c 	sw	s0,28(sp)
    3e54:	309100ff 	andi	s1,a0,0xff
    3e58:	30b000ff 	andi	s0,a1,0xff
    3e5c:	afbf0024 	sw	ra,36(sp)
    3e60:	afa00010 	sw	zero,16(sp)
    3e64:	0c001d3c 	jal	74f0 <OS_CPU_SR_Save>
    3e68:	00000000 	nop
    3e6c:	3c030001 	lui	v1,0x1
    3e70:	00102080 	sll	a0,s0,0x2
    3e74:	24639a70 	addiu	v1,v1,-26000
    3e78:	00642821 	addu	a1,v1,a0
    3e7c:	8ca50000 	lw	a1,0(a1)
    3e80:	afa20010 	sw	v0,16(sp)
    3e84:	10a0000a 	beqz	a1,3eb0 <OSTaskChangePrio+0x68>
    3e88:	240200ff 	li	v0,255
    3e8c:	8fa40010 	lw	a0,16(sp)
    3e90:	0c001d43 	jal	750c <OS_CPU_SR_Restore>
    3e94:	00000000 	nop
    3e98:	24020028 	li	v0,40
    3e9c:	8fbf0024 	lw	ra,36(sp)
    3ea0:	8fb10020 	lw	s1,32(sp)
    3ea4:	8fb0001c 	lw	s0,28(sp)
    3ea8:	03e00008 	jr	ra
    3eac:	27bd0028 	addiu	sp,sp,40
    3eb0:	12220074 	beq	s1,v0,4084 <OSTaskChangePrio+0x23c>
    3eb4:	8f827b78 	lw	v0,31608(gp)
    3eb8:	00118880 	sll	s1,s1,0x2
    3ebc:	00718821 	addu	s1,v1,s1
    3ec0:	8e290000 	lw	t1,0(s1)
    3ec4:	11200071 	beqz	t1,408c <OSTaskChangePrio+0x244>
    3ec8:	24070001 	li	a3,1
    3ecc:	11270074 	beq	t1,a3,40a0 <OSTaskChangePrio+0x258>
    3ed0:	00641821 	addu	v1,v1,a0
    3ed4:	ae200000 	sw	zero,0(s1)
    3ed8:	ac690000 	sw	t1,0(v1)
    3edc:	912b0038 	lbu	t3,56(t1)
    3ee0:	27827b68 	addiu	v0,gp,31592
    3ee4:	004b2021 	addu	a0,v0,t3
    3ee8:	91250039 	lbu	a1,57(t1)
    3eec:	90830000 	lbu	v1,0(a0)
    3ef0:	001050c2 	srl	t2,s0,0x3
    3ef4:	320c0007 	andi	t4,s0,0x7
    3ef8:	01476804 	sllv	t5,a3,t2
    3efc:	00a33024 	and	a2,a1,v1
    3f00:	01873804 	sllv	a3,a3,t4
    3f04:	31ad00ff 	andi	t5,t5,0xff
    3f08:	30e700ff 	andi	a3,a3,0xff
    3f0c:	10c0000c 	beqz	a2,3f40 <OSTaskChangePrio+0xf8>
    3f10:	9128003a 	lbu	t0,58(t1)
    3f14:	00053027 	nor	a2,zero,a1
    3f18:	00661824 	and	v1,v1,a2
    3f1c:	10600051 	beqz	v1,4064 <OSTaskChangePrio+0x21c>
    3f20:	a0830000 	sb	v1,0(a0)
    3f24:	93837b64 	lbu	v1,31588(gp)
    3f28:	004a1021 	addu	v0,v0,t2
    3f2c:	90440000 	lbu	a0,0(v0)
    3f30:	01a31825 	or	v1,t5,v1
    3f34:	00e42025 	or	a0,a3,a0
    3f38:	a3837b64 	sb	v1,31588(gp)
    3f3c:	a0440000 	sb	a0,0(v0)
    3f40:	8d22001c 	lw	v0,28(t1)
    3f44:	1040000d 	beqz	v0,3f7c <OSTaskChangePrio+0x134>
    3f48:	004b2021 	addu	a0,v0,t3
    3f4c:	9086000b 	lbu	a2,11(a0)
    3f50:	00051827 	nor	v1,zero,a1
    3f54:	00661824 	and	v1,v1,a2
    3f58:	1060003e 	beqz	v1,4054 <OSTaskChangePrio+0x20c>
    3f5c:	a083000b 	sb	v1,11(a0)
    3f60:	9043000a 	lbu	v1,10(v0)
    3f64:	01a31825 	or	v1,t5,v1
    3f68:	a043000a 	sb	v1,10(v0)
    3f6c:	004a1021 	addu	v0,v0,t2
    3f70:	9043000b 	lbu	v1,11(v0)
    3f74:	00e31825 	or	v1,a3,v1
    3f78:	a043000b 	sb	v1,11(v0)
    3f7c:	8d240020 	lw	a0,32(t1)
    3f80:	10800023 	beqz	a0,4010 <OSTaskChangePrio+0x1c8>
    3f84:	00000000 	nop
    3f88:	8c820000 	lw	v0,0(a0)
    3f8c:	10400020 	beqz	v0,4010 <OSTaskChangePrio+0x1c8>
    3f90:	00052827 	nor	a1,zero,a1
    3f94:	30a500ff 	andi	a1,a1,0xff
    3f98:	1000000c 	b	3fcc <OSTaskChangePrio+0x184>
    3f9c:	00084027 	nor	t0,zero,t0
    3fa0:	9043000a 	lbu	v1,10(v0)
    3fa4:	24840004 	addiu	a0,a0,4
    3fa8:	01a31825 	or	v1,t5,v1
    3fac:	a043000a 	sb	v1,10(v0)
    3fb0:	004a1021 	addu	v0,v0,t2
    3fb4:	9043000b 	lbu	v1,11(v0)
    3fb8:	00e31825 	or	v1,a3,v1
    3fbc:	a043000b 	sb	v1,11(v0)
    3fc0:	8c820000 	lw	v0,0(a0)
    3fc4:	10400012 	beqz	v0,4010 <OSTaskChangePrio+0x1c8>
    3fc8:	00000000 	nop
    3fcc:	004b3021 	addu	a2,v0,t3
    3fd0:	90c3000b 	lbu	v1,11(a2)
    3fd4:	00a31824 	and	v1,a1,v1
    3fd8:	1460fff1 	bnez	v1,3fa0 <OSTaskChangePrio+0x158>
    3fdc:	a0c3000b 	sb	v1,11(a2)
    3fe0:	9043000a 	lbu	v1,10(v0)
    3fe4:	24840004 	addiu	a0,a0,4
    3fe8:	01031824 	and	v1,t0,v1
    3fec:	01a31825 	or	v1,t5,v1
    3ff0:	a043000a 	sb	v1,10(v0)
    3ff4:	004a1021 	addu	v0,v0,t2
    3ff8:	9043000b 	lbu	v1,11(v0)
    3ffc:	00e31825 	or	v1,a3,v1
    4000:	a043000b 	sb	v1,11(v0)
    4004:	8c820000 	lw	v0,0(a0)
    4008:	1440fff1 	bnez	v0,3fd0 <OSTaskChangePrio+0x188>
    400c:	004b3021 	addu	a2,v0,t3
    4010:	8fa40010 	lw	a0,16(sp)
    4014:	a1300036 	sb	s0,54(t1)
    4018:	a12a0038 	sb	t2,56(t1)
    401c:	a12c0037 	sb	t4,55(t1)
    4020:	a12d003a 	sb	t5,58(t1)
    4024:	0c001d43 	jal	750c <OS_CPU_SR_Restore>
    4028:	a1270039 	sb	a3,57(t1)
    402c:	93837b30 	lbu	v1,31536(gp)
    4030:	24020001 	li	v0,1
    4034:	1062000f 	beq	v1,v0,4074 <OSTaskChangePrio+0x22c>
    4038:	00000000 	nop
    403c:	00001025 	move	v0,zero
    4040:	8fbf0024 	lw	ra,36(sp)
    4044:	8fb10020 	lw	s1,32(sp)
    4048:	8fb0001c 	lw	s0,28(sp)
    404c:	03e00008 	jr	ra
    4050:	27bd0028 	addiu	sp,sp,40
    4054:	9044000a 	lbu	a0,10(v0)
    4058:	00081827 	nor	v1,zero,t0
    405c:	1000ffc1 	b	3f64 <OSTaskChangePrio+0x11c>
    4060:	00641824 	and	v1,v1,a0
    4064:	93847b64 	lbu	a0,31588(gp)
    4068:	00081827 	nor	v1,zero,t0
    406c:	1000ffae 	b	3f28 <OSTaskChangePrio+0xe0>
    4070:	00641824 	and	v1,v1,a0
    4074:	0c001a02 	jal	6808 <OS_Sched>
    4078:	00000000 	nop
    407c:	1000fff0 	b	4040 <OSTaskChangePrio+0x1f8>
    4080:	00001025 	move	v0,zero
    4084:	1000ff8c 	b	3eb8 <OSTaskChangePrio+0x70>
    4088:	90510036 	lbu	s1,54(v0)
    408c:	8fa40010 	lw	a0,16(sp)
    4090:	0c001d43 	jal	750c <OS_CPU_SR_Restore>
    4094:	00000000 	nop
    4098:	1000ff80 	b	3e9c <OSTaskChangePrio+0x54>
    409c:	24020029 	li	v0,41
    40a0:	8fa40010 	lw	a0,16(sp)
    40a4:	0c001d43 	jal	750c <OS_CPU_SR_Restore>
    40a8:	00000000 	nop
    40ac:	1000ff7b 	b	3e9c <OSTaskChangePrio+0x54>
    40b0:	24020043 	li	v0,67

000040b4 <OSTaskCreate>:
    40b4:	27bdffb8 	addiu	sp,sp,-72
    40b8:	afb5003c 	sw	s5,60(sp)
    40bc:	afb40038 	sw	s4,56(sp)
    40c0:	afb30034 	sw	s3,52(sp)
    40c4:	afb20030 	sw	s2,48(sp)
    40c8:	afb00028 	sw	s0,40(sp)
    40cc:	afbf0044 	sw	ra,68(sp)
    40d0:	afb60040 	sw	s6,64(sp)
    40d4:	afb1002c 	sw	s1,44(sp)
    40d8:	00809825 	move	s3,a0
    40dc:	00a0a025 	move	s4,a1
    40e0:	00c0a825 	move	s5,a2
    40e4:	30f200ff 	andi	s2,a3,0xff
    40e8:	afa00020 	sw	zero,32(sp)
    40ec:	0c001d3c 	jal	74f0 <OS_CPU_SR_Save>
    40f0:	00000000 	nop
    40f4:	93907b74 	lbu	s0,31604(gp)
    40f8:	afa20020 	sw	v0,32(sp)
    40fc:	16000015 	bnez	s0,4154 <OSTaskCreate+0xa0>
    4100:	3c020001 	lui	v0,0x1
    4104:	24429a70 	addiu	v0,v0,-26000
    4108:	00128880 	sll	s1,s2,0x2
    410c:	02228821 	addu	s1,s1,v0
    4110:	8e220000 	lw	v0,0(s1)
    4114:	8fa40020 	lw	a0,32(sp)
    4118:	1040001c 	beqz	v0,418c <OSTaskCreate+0xd8>
    411c:	24160001 	li	s6,1
    4120:	0c001d43 	jal	750c <OS_CPU_SR_Restore>
    4124:	24100028 	li	s0,40
    4128:	8fbf0044 	lw	ra,68(sp)
    412c:	02001025 	move	v0,s0
    4130:	8fb60040 	lw	s6,64(sp)
    4134:	8fb5003c 	lw	s5,60(sp)
    4138:	8fb40038 	lw	s4,56(sp)
    413c:	8fb30034 	lw	s3,52(sp)
    4140:	8fb20030 	lw	s2,48(sp)
    4144:	8fb1002c 	lw	s1,44(sp)
    4148:	8fb00028 	lw	s0,40(sp)
    414c:	03e00008 	jr	ra
    4150:	27bd0048 	addiu	sp,sp,72
    4154:	8fa40020 	lw	a0,32(sp)
    4158:	0c001d43 	jal	750c <OS_CPU_SR_Restore>
    415c:	2410003c 	li	s0,60
    4160:	8fbf0044 	lw	ra,68(sp)
    4164:	02001025 	move	v0,s0
    4168:	8fb60040 	lw	s6,64(sp)
    416c:	8fb5003c 	lw	s5,60(sp)
    4170:	8fb40038 	lw	s4,56(sp)
    4174:	8fb30034 	lw	s3,52(sp)
    4178:	8fb20030 	lw	s2,48(sp)
    417c:	8fb1002c 	lw	s1,44(sp)
    4180:	8fb00028 	lw	s0,40(sp)
    4184:	03e00008 	jr	ra
    4188:	27bd0048 	addiu	sp,sp,72
    418c:	0c001d43 	jal	750c <OS_CPU_SR_Restore>
    4190:	ae360000 	sw	s6,0(s1)
    4194:	02a03025 	move	a2,s5
    4198:	02802825 	move	a1,s4
    419c:	02602025 	move	a0,s3
    41a0:	0c001c56 	jal	7158 <OSTaskStkInit>
    41a4:	00003825 	move	a3,zero
    41a8:	00402825 	move	a1,v0
    41ac:	02402025 	move	a0,s2
    41b0:	afa00018 	sw	zero,24(sp)
    41b4:	afa00014 	sw	zero,20(sp)
    41b8:	afa00010 	sw	zero,16(sp)
    41bc:	00003825 	move	a3,zero
    41c0:	0c001bd6 	jal	6f58 <OS_TCBInit>
    41c4:	00003025 	move	a2,zero
    41c8:	14400008 	bnez	v0,41ec <OSTaskCreate+0x138>
    41cc:	00409025 	move	s2,v0
    41d0:	93827b30 	lbu	v0,31536(gp)
    41d4:	1456ffd4 	bne	v0,s6,4128 <OSTaskCreate+0x74>
    41d8:	00000000 	nop
    41dc:	0c001a02 	jal	6808 <OS_Sched>
    41e0:	00000000 	nop
    41e4:	1000ffd1 	b	412c <OSTaskCreate+0x78>
    41e8:	8fbf0044 	lw	ra,68(sp)
    41ec:	0c001d3c 	jal	74f0 <OS_CPU_SR_Save>
    41f0:	00000000 	nop
    41f4:	afa20020 	sw	v0,32(sp)
    41f8:	8fa40020 	lw	a0,32(sp)
    41fc:	ae200000 	sw	zero,0(s1)
    4200:	0c001d43 	jal	750c <OS_CPU_SR_Restore>
    4204:	02408025 	move	s0,s2
    4208:	1000ffc8 	b	412c <OSTaskCreate+0x78>
    420c:	8fbf0044 	lw	ra,68(sp)

00004210 <OSTaskCreateExt>:
    4210:	27bdffb0 	addiu	sp,sp,-80
    4214:	afb70044 	sw	s7,68(sp)
    4218:	afb60040 	sw	s6,64(sp)
    421c:	afb5003c 	sw	s5,60(sp)
    4220:	afb40038 	sw	s4,56(sp)
    4224:	afb30034 	sw	s3,52(sp)
    4228:	afb20030 	sw	s2,48(sp)
    422c:	afb00028 	sw	s0,40(sp)
    4230:	afbf004c 	sw	ra,76(sp)
    4234:	afbe0048 	sw	s8,72(sp)
    4238:	afb1002c 	sw	s1,44(sp)
    423c:	0080a025 	move	s4,a0
    4240:	00a0a825 	move	s5,a1
    4244:	00c0b825 	move	s7,a2
    4248:	30f200ff 	andi	s2,a3,0xff
    424c:	97b60062 	lhu	s6,98(sp)
    4250:	97b30072 	lhu	s3,114(sp)
    4254:	afa00020 	sw	zero,32(sp)
    4258:	0c001d3c 	jal	74f0 <OS_CPU_SR_Save>
    425c:	00000000 	nop
    4260:	93907b74 	lbu	s0,31604(gp)
    4264:	afa20020 	sw	v0,32(sp)
    4268:	16000017 	bnez	s0,42c8 <OSTaskCreateExt+0xb8>
    426c:	3c110001 	lui	s1,0x1
    4270:	0012f080 	sll	s8,s2,0x2
    4274:	26319a70 	addiu	s1,s1,-26000
    4278:	023e1021 	addu	v0,s1,s8
    427c:	8c430000 	lw	v1,0(v0)
    4280:	8fa40020 	lw	a0,32(sp)
    4284:	10600020 	beqz	v1,4308 <OSTaskCreateExt+0xf8>
    4288:	24030001 	li	v1,1
    428c:	0c001d43 	jal	750c <OS_CPU_SR_Restore>
    4290:	24100028 	li	s0,40
    4294:	8fbf004c 	lw	ra,76(sp)
    4298:	02001025 	move	v0,s0
    429c:	8fbe0048 	lw	s8,72(sp)
    42a0:	8fb70044 	lw	s7,68(sp)
    42a4:	8fb60040 	lw	s6,64(sp)
    42a8:	8fb5003c 	lw	s5,60(sp)
    42ac:	8fb40038 	lw	s4,56(sp)
    42b0:	8fb30034 	lw	s3,52(sp)
    42b4:	8fb20030 	lw	s2,48(sp)
    42b8:	8fb1002c 	lw	s1,44(sp)
    42bc:	8fb00028 	lw	s0,40(sp)
    42c0:	03e00008 	jr	ra
    42c4:	27bd0050 	addiu	sp,sp,80
    42c8:	8fa40020 	lw	a0,32(sp)
    42cc:	0c001d43 	jal	750c <OS_CPU_SR_Restore>
    42d0:	2410003c 	li	s0,60
    42d4:	8fbf004c 	lw	ra,76(sp)
    42d8:	02001025 	move	v0,s0
    42dc:	8fbe0048 	lw	s8,72(sp)
    42e0:	8fb70044 	lw	s7,68(sp)
    42e4:	8fb60040 	lw	s6,64(sp)
    42e8:	8fb5003c 	lw	s5,60(sp)
    42ec:	8fb40038 	lw	s4,56(sp)
    42f0:	8fb30034 	lw	s3,52(sp)
    42f4:	8fb20030 	lw	s2,48(sp)
    42f8:	8fb1002c 	lw	s1,44(sp)
    42fc:	8fb00028 	lw	s0,40(sp)
    4300:	03e00008 	jr	ra
    4304:	27bd0050 	addiu	sp,sp,80
    4308:	0c001d43 	jal	750c <OS_CPU_SR_Restore>
    430c:	ac430000 	sw	v1,0(v0)
    4310:	32620003 	andi	v0,s3,0x3
    4314:	24030003 	li	v1,3
    4318:	1043001a 	beq	v0,v1,4384 <OSTaskCreateExt+0x174>
    431c:	8fa20068 	lw	v0,104(sp)
    4320:	02603825 	move	a3,s3
    4324:	02e03025 	move	a2,s7
    4328:	02a02825 	move	a1,s5
    432c:	0c001c56 	jal	7158 <OSTaskStkInit>
    4330:	02802025 	move	a0,s4
    4334:	00402825 	move	a1,v0
    4338:	8fa2006c 	lw	v0,108(sp)
    433c:	8fa60064 	lw	a2,100(sp)
    4340:	afa20014 	sw	v0,20(sp)
    4344:	8fa20068 	lw	v0,104(sp)
    4348:	02402025 	move	a0,s2
    434c:	afb30018 	sw	s3,24(sp)
    4350:	afa20010 	sw	v0,16(sp)
    4354:	0c001bd6 	jal	6f58 <OS_TCBInit>
    4358:	02c03825 	move	a3,s6
    435c:	14400011 	bnez	v0,43a4 <OSTaskCreateExt+0x194>
    4360:	00409025 	move	s2,v0
    4364:	93837b30 	lbu	v1,31536(gp)
    4368:	24020001 	li	v0,1
    436c:	1462ffc9 	bne	v1,v0,4294 <OSTaskCreateExt+0x84>
    4370:	00000000 	nop
    4374:	0c001a02 	jal	6808 <OS_Sched>
    4378:	00000000 	nop
    437c:	1000ffc6 	b	4298 <OSTaskCreateExt+0x88>
    4380:	8fbf004c 	lw	ra,76(sp)
    4384:	1040ffe6 	beqz	v0,4320 <OSTaskCreateExt+0x110>
    4388:	8fa30064 	lw	v1,100(sp)
    438c:	24630004 	addiu	v1,v1,4
    4390:	2442ffff 	addiu	v0,v0,-1
    4394:	1440fffd 	bnez	v0,438c <OSTaskCreateExt+0x17c>
    4398:	ac60fffc 	sw	zero,-4(v1)
    439c:	1000ffe1 	b	4324 <OSTaskCreateExt+0x114>
    43a0:	02603825 	move	a3,s3
    43a4:	0c001d3c 	jal	74f0 <OS_CPU_SR_Save>
    43a8:	00000000 	nop
    43ac:	afa20020 	sw	v0,32(sp)
    43b0:	8fa40020 	lw	a0,32(sp)
    43b4:	023e8821 	addu	s1,s1,s8
    43b8:	ae200000 	sw	zero,0(s1)
    43bc:	0c001d43 	jal	750c <OS_CPU_SR_Restore>
    43c0:	02408025 	move	s0,s2
    43c4:	1000ffb4 	b	4298 <OSTaskCreateExt+0x88>
    43c8:	8fbf004c 	lw	ra,76(sp)

000043cc <OSTaskDel>:
    43cc:	27bdffd0 	addiu	sp,sp,-48
    43d0:	afb0001c 	sw	s0,28(sp)
    43d4:	93907b74 	lbu	s0,31604(gp)
    43d8:	afbf002c 	sw	ra,44(sp)
    43dc:	afb30028 	sw	s3,40(sp)
    43e0:	afb20024 	sw	s2,36(sp)
    43e4:	afb10020 	sw	s1,32(sp)
    43e8:	afa00010 	sw	zero,16(sp)
    43ec:	1200000a 	beqz	s0,4418 <OSTaskDel+0x4c>
    43f0:	309100ff 	andi	s1,a0,0xff
    43f4:	24100040 	li	s0,64
    43f8:	8fbf002c 	lw	ra,44(sp)
    43fc:	02001025 	move	v0,s0
    4400:	8fb30028 	lw	s3,40(sp)
    4404:	8fb20024 	lw	s2,36(sp)
    4408:	8fb10020 	lw	s1,32(sp)
    440c:	8fb0001c 	lw	s0,28(sp)
    4410:	03e00008 	jr	ra
    4414:	27bd0030 	addiu	sp,sp,48
    4418:	2402003f 	li	v0,63
    441c:	16220009 	bne	s1,v0,4444 <OSTaskDel+0x78>
    4420:	8fbf002c 	lw	ra,44(sp)
    4424:	2410003e 	li	s0,62
    4428:	02001025 	move	v0,s0
    442c:	8fb30028 	lw	s3,40(sp)
    4430:	8fb20024 	lw	s2,36(sp)
    4434:	8fb10020 	lw	s1,32(sp)
    4438:	8fb0001c 	lw	s0,28(sp)
    443c:	03e00008 	jr	ra
    4440:	27bd0030 	addiu	sp,sp,48
    4444:	0c001d3c 	jal	74f0 <OS_CPU_SR_Save>
    4448:	00000000 	nop
    444c:	afa20010 	sw	v0,16(sp)
    4450:	240200ff 	li	v0,255
    4454:	12220059 	beq	s1,v0,45bc <OSTaskDel+0x1f0>
    4458:	8f827b78 	lw	v0,31608(gp)
    445c:	3c130001 	lui	s3,0x1
    4460:	00119080 	sll	s2,s1,0x2
    4464:	26739a70 	addiu	s3,s3,-26000
    4468:	02721021 	addu	v0,s3,s2
    446c:	8c510000 	lw	s1,0(v0)
    4470:	12200054 	beqz	s1,45c4 <OSTaskDel+0x1f8>
    4474:	24020001 	li	v0,1
    4478:	1222005a 	beq	s1,v0,45e4 <OSTaskDel+0x218>
    447c:	27827b68 	addiu	v0,gp,31592
    4480:	92230038 	lbu	v1,56(s1)
    4484:	00431821 	addu	v1,v0,v1
    4488:	92220039 	lbu	v0,57(s1)
    448c:	90640000 	lbu	a0,0(v1)
    4490:	00021027 	nor	v0,zero,v0
    4494:	00441024 	and	v0,v0,a0
    4498:	10400042 	beqz	v0,45a4 <OSTaskDel+0x1d8>
    449c:	a0620000 	sb	v0,0(v1)
    44a0:	8e25001c 	lw	a1,28(s1)
    44a4:	10a00003 	beqz	a1,44b4 <OSTaskDel+0xe8>
    44a8:	00000000 	nop
    44ac:	0c0019ba 	jal	66e8 <OS_EventTaskRemove>
    44b0:	02202025 	move	a0,s1
    44b4:	8e250020 	lw	a1,32(s1)
    44b8:	10a00003 	beqz	a1,44c8 <OSTaskDel+0xfc>
    44bc:	00000000 	nop
    44c0:	0c0019c9 	jal	6724 <OS_EventTaskRemoveMulti>
    44c4:	02202025 	move	a0,s1
    44c8:	8e240028 	lw	a0,40(s1)
    44cc:	10800004 	beqz	a0,44e0 <OSTaskDel+0x114>
    44d0:	93827b28 	lbu	v0,31528(gp)
    44d4:	0c000566 	jal	1598 <OS_FlagUnlink>
    44d8:	00000000 	nop
    44dc:	93827b28 	lbu	v0,31528(gp)
    44e0:	240300ff 	li	v1,255
    44e4:	ae200030 	sw	zero,48(s1)
    44e8:	a2200034 	sb	zero,52(s1)
    44ec:	10430003 	beq	v0,v1,44fc <OSTaskDel+0x130>
    44f0:	a2200035 	sb	zero,53(s1)
    44f4:	24420001 	addiu	v0,v0,1
    44f8:	a3827b28 	sb	v0,31528(gp)
    44fc:	8fa40010 	lw	a0,16(sp)
    4500:	0c001d43 	jal	750c <OS_CPU_SR_Restore>
    4504:	00000000 	nop
    4508:	0c001922 	jal	6488 <OS_Dummy>
    450c:	00000000 	nop
    4510:	0c001d3c 	jal	74f0 <OS_CPU_SR_Save>
    4514:	00000000 	nop
    4518:	93837b28 	lbu	v1,31528(gp)
    451c:	afa20010 	sw	v0,16(sp)
    4520:	1460001e 	bnez	v1,459c <OSTaskDel+0x1d0>
    4524:	2463ffff 	addiu	v1,v1,-1
    4528:	02202025 	move	a0,s1
    452c:	0c001c4e 	jal	7138 <OSTaskDelHook>
    4530:	02729021 	addu	s2,s3,s2
    4534:	93827b55 	lbu	v0,31573(gp)
    4538:	ae400000 	sw	zero,0(s2)
    453c:	8e230018 	lw	v1,24(s1)
    4540:	2442ffff 	addiu	v0,v0,-1
    4544:	a3827b55 	sb	v0,31573(gp)
    4548:	10600023 	beqz	v1,45d8 <OSTaskDel+0x20c>
    454c:	8e220014 	lw	v0,20(s1)
    4550:	ac620014 	sw	v0,20(v1)
    4554:	8e220014 	lw	v0,20(s1)
    4558:	ac430018 	sw	v1,24(v0)
    455c:	8f827b50 	lw	v0,31568(gp)
    4560:	8fa40010 	lw	a0,16(sp)
    4564:	ae220014 	sw	v0,20(s1)
    4568:	3c020000 	lui	v0,0x0
    456c:	24427a90 	addiu	v0,v0,31376
    4570:	ae220050 	sw	v0,80(s1)
    4574:	0c001d43 	jal	750c <OS_CPU_SR_Restore>
    4578:	af917b50 	sw	s1,31568(gp)
    457c:	93837b30 	lbu	v1,31536(gp)
    4580:	24020001 	li	v0,1
    4584:	1462ff9c 	bne	v1,v0,43f8 <OSTaskDel+0x2c>
    4588:	00000000 	nop
    458c:	0c001a02 	jal	6808 <OS_Sched>
    4590:	00000000 	nop
    4594:	1000ff99 	b	43fc <OSTaskDel+0x30>
    4598:	8fbf002c 	lw	ra,44(sp)
    459c:	1000ffe2 	b	4528 <OSTaskDel+0x15c>
    45a0:	a3837b28 	sb	v1,31528(gp)
    45a4:	9222003a 	lbu	v0,58(s1)
    45a8:	93837b64 	lbu	v1,31588(gp)
    45ac:	00021027 	nor	v0,zero,v0
    45b0:	00431024 	and	v0,v0,v1
    45b4:	1000ffba 	b	44a0 <OSTaskDel+0xd4>
    45b8:	a3827b64 	sb	v0,31588(gp)
    45bc:	1000ffa7 	b	445c <OSTaskDel+0x90>
    45c0:	90510036 	lbu	s1,54(v0)
    45c4:	8fa40010 	lw	a0,16(sp)
    45c8:	0c001d43 	jal	750c <OS_CPU_SR_Restore>
    45cc:	24100043 	li	s0,67
    45d0:	1000ff8a 	b	43fc <OSTaskDel+0x30>
    45d4:	8fbf002c 	lw	ra,44(sp)
    45d8:	ac400018 	sw	zero,24(v0)
    45dc:	1000ffdf 	b	455c <OSTaskDel+0x190>
    45e0:	af827b3c 	sw	v0,31548(gp)
    45e4:	8fa40010 	lw	a0,16(sp)
    45e8:	0c001d43 	jal	750c <OS_CPU_SR_Restore>
    45ec:	2410003d 	li	s0,61
    45f0:	1000ff82 	b	43fc <OSTaskDel+0x30>
    45f4:	8fbf002c 	lw	ra,44(sp)

000045f8 <OSTaskDelReq>:
    45f8:	27bdffd8 	addiu	sp,sp,-40
    45fc:	afb10020 	sw	s1,32(sp)
    4600:	afb0001c 	sw	s0,28(sp)
    4604:	2411003f 	li	s1,63
    4608:	309000ff 	andi	s0,a0,0xff
    460c:	afbf0024 	sw	ra,36(sp)
    4610:	afa00010 	sw	zero,16(sp)
    4614:	12110018 	beq	s0,s1,4678 <OSTaskDelReq+0x80>
    4618:	240200ff 	li	v0,255
    461c:	1202001c 	beq	s0,v0,4690 <OSTaskDelReq+0x98>
    4620:	00000000 	nop
    4624:	0c001d3c 	jal	74f0 <OS_CPU_SR_Save>
    4628:	00108080 	sll	s0,s0,0x2
    462c:	3c040001 	lui	a0,0x1
    4630:	24849a70 	addiu	a0,a0,-26000
    4634:	02048021 	addu	s0,s0,a0
    4638:	8e030000 	lw	v1,0(s0)
    463c:	afa20010 	sw	v0,16(sp)
    4640:	10600028 	beqz	v1,46e4 <OSTaskDelReq+0xec>
    4644:	00000000 	nop
    4648:	24020001 	li	v0,1
    464c:	8fa40010 	lw	a0,16(sp)
    4650:	1062001c 	beq	v1,v0,46c4 <OSTaskDelReq+0xcc>
    4654:	00000000 	nop
    4658:	0c001d43 	jal	750c <OS_CPU_SR_Restore>
    465c:	a071003b 	sb	s1,59(v1)
    4660:	00001025 	move	v0,zero
    4664:	8fbf0024 	lw	ra,36(sp)
    4668:	8fb10020 	lw	s1,32(sp)
    466c:	8fb0001c 	lw	s0,28(sp)
    4670:	03e00008 	jr	ra
    4674:	27bd0028 	addiu	sp,sp,40
    4678:	8fbf0024 	lw	ra,36(sp)
    467c:	8fb10020 	lw	s1,32(sp)
    4680:	8fb0001c 	lw	s0,28(sp)
    4684:	2402003e 	li	v0,62
    4688:	03e00008 	jr	ra
    468c:	27bd0028 	addiu	sp,sp,40
    4690:	0c001d3c 	jal	74f0 <OS_CPU_SR_Save>
    4694:	00000000 	nop
    4698:	afa20010 	sw	v0,16(sp)
    469c:	8fa40010 	lw	a0,16(sp)
    46a0:	8f827b78 	lw	v0,31608(gp)
    46a4:	0c001d43 	jal	750c <OS_CPU_SR_Restore>
    46a8:	9050003b 	lbu	s0,59(v0)
    46ac:	8fbf0024 	lw	ra,36(sp)
    46b0:	02001025 	move	v0,s0
    46b4:	8fb10020 	lw	s1,32(sp)
    46b8:	8fb0001c 	lw	s0,28(sp)
    46bc:	03e00008 	jr	ra
    46c0:	27bd0028 	addiu	sp,sp,40
    46c4:	0c001d43 	jal	750c <OS_CPU_SR_Restore>
    46c8:	00000000 	nop
    46cc:	8fbf0024 	lw	ra,36(sp)
    46d0:	8fb10020 	lw	s1,32(sp)
    46d4:	8fb0001c 	lw	s0,28(sp)
    46d8:	2402003d 	li	v0,61
    46dc:	03e00008 	jr	ra
    46e0:	27bd0028 	addiu	sp,sp,40
    46e4:	8fa40010 	lw	a0,16(sp)
    46e8:	0c001d43 	jal	750c <OS_CPU_SR_Restore>
    46ec:	00000000 	nop
    46f0:	1000ffdc 	b	4664 <OSTaskDelReq+0x6c>
    46f4:	24020043 	li	v0,67

000046f8 <OSTaskNameGet>:
    46f8:	27bdffd0 	addiu	sp,sp,-48
    46fc:	afb0001c 	sw	s0,28(sp)
    4700:	93907b74 	lbu	s0,31604(gp)
    4704:	afbf002c 	sw	ra,44(sp)
    4708:	afb30028 	sw	s3,40(sp)
    470c:	afb20024 	sw	s2,36(sp)
    4710:	afb10020 	sw	s1,32(sp)
    4714:	afa00010 	sw	zero,16(sp)
    4718:	1200000b 	beqz	s0,4748 <OSTaskNameGet+0x50>
    471c:	24020011 	li	v0,17
    4720:	a0c20000 	sb	v0,0(a2)
    4724:	00008025 	move	s0,zero
    4728:	8fbf002c 	lw	ra,44(sp)
    472c:	02001025 	move	v0,s0
    4730:	8fb30028 	lw	s3,40(sp)
    4734:	8fb20024 	lw	s2,36(sp)
    4738:	8fb10020 	lw	s1,32(sp)
    473c:	8fb0001c 	lw	s0,28(sp)
    4740:	03e00008 	jr	ra
    4744:	27bd0030 	addiu	sp,sp,48
    4748:	309100ff 	andi	s1,a0,0xff
    474c:	00c09025 	move	s2,a2
    4750:	0c001d3c 	jal	74f0 <OS_CPU_SR_Save>
    4754:	00a09825 	move	s3,a1
    4758:	afa20010 	sw	v0,16(sp)
    475c:	240200ff 	li	v0,255
    4760:	1222001a 	beq	s1,v0,47cc <OSTaskNameGet+0xd4>
    4764:	8f827b78 	lw	v0,31608(gp)
    4768:	3c040001 	lui	a0,0x1
    476c:	00118880 	sll	s1,s1,0x2
    4770:	24849a70 	addiu	a0,a0,-26000
    4774:	02248821 	addu	s1,s1,a0
    4778:	8e220000 	lw	v0,0(s1)
    477c:	10400015 	beqz	v0,47d4 <OSTaskNameGet+0xdc>
    4780:	24030001 	li	v1,1
    4784:	10430013 	beq	v0,v1,47d4 <OSTaskNameGet+0xdc>
    4788:	00000000 	nop
    478c:	8c420050 	lw	v0,80(v0)
    4790:	00402025 	move	a0,v0
    4794:	0c001b75 	jal	6dd4 <OS_StrLen>
    4798:	ae620000 	sw	v0,0(s3)
    479c:	8fa40010 	lw	a0,16(sp)
    47a0:	0c001d43 	jal	750c <OS_CPU_SR_Restore>
    47a4:	00408025 	move	s0,v0
    47a8:	a2400000 	sb	zero,0(s2)
    47ac:	8fbf002c 	lw	ra,44(sp)
    47b0:	02001025 	move	v0,s0
    47b4:	8fb30028 	lw	s3,40(sp)
    47b8:	8fb20024 	lw	s2,36(sp)
    47bc:	8fb10020 	lw	s1,32(sp)
    47c0:	8fb0001c 	lw	s0,28(sp)
    47c4:	03e00008 	jr	ra
    47c8:	27bd0030 	addiu	sp,sp,48
    47cc:	1000ffe6 	b	4768 <OSTaskNameGet+0x70>
    47d0:	90510036 	lbu	s1,54(v0)
    47d4:	8fa40010 	lw	a0,16(sp)
    47d8:	0c001d43 	jal	750c <OS_CPU_SR_Restore>
    47dc:	00000000 	nop
    47e0:	24020043 	li	v0,67
    47e4:	1000ffd0 	b	4728 <OSTaskNameGet+0x30>
    47e8:	a2420000 	sb	v0,0(s2)

000047ec <OSTaskNameSet>:
    47ec:	93827b74 	lbu	v0,31604(gp)
    47f0:	27bdffd8 	addiu	sp,sp,-40
    47f4:	afbf0024 	sw	ra,36(sp)
    47f8:	afb20020 	sw	s2,32(sp)
    47fc:	afb1001c 	sw	s1,28(sp)
    4800:	afb00018 	sw	s0,24(sp)
    4804:	afa00010 	sw	zero,16(sp)
    4808:	10400008 	beqz	v0,482c <OSTaskNameSet+0x40>
    480c:	24020012 	li	v0,18
    4810:	a0c20000 	sb	v0,0(a2)
    4814:	8fbf0024 	lw	ra,36(sp)
    4818:	8fb20020 	lw	s2,32(sp)
    481c:	8fb1001c 	lw	s1,28(sp)
    4820:	8fb00018 	lw	s0,24(sp)
    4824:	03e00008 	jr	ra
    4828:	27bd0028 	addiu	sp,sp,40
    482c:	309000ff 	andi	s0,a0,0xff
    4830:	00c08825 	move	s1,a2
    4834:	0c001d3c 	jal	74f0 <OS_CPU_SR_Save>
    4838:	00a09025 	move	s2,a1
    483c:	afa20010 	sw	v0,16(sp)
    4840:	240200ff 	li	v0,255
    4844:	12020014 	beq	s0,v0,4898 <OSTaskNameSet+0xac>
    4848:	8f827b78 	lw	v0,31608(gp)
    484c:	3c040001 	lui	a0,0x1
    4850:	00108080 	sll	s0,s0,0x2
    4854:	24849a70 	addiu	a0,a0,-26000
    4858:	02048021 	addu	s0,s0,a0
    485c:	8e020000 	lw	v0,0(s0)
    4860:	10400014 	beqz	v0,48b4 <OSTaskNameSet+0xc8>
    4864:	24030001 	li	v1,1
    4868:	8fa40010 	lw	a0,16(sp)
    486c:	1043000c 	beq	v0,v1,48a0 <OSTaskNameSet+0xb4>
    4870:	00000000 	nop
    4874:	0c001d43 	jal	750c <OS_CPU_SR_Restore>
    4878:	ac520050 	sw	s2,80(v0)
    487c:	a2200000 	sb	zero,0(s1)
    4880:	8fbf0024 	lw	ra,36(sp)
    4884:	8fb20020 	lw	s2,32(sp)
    4888:	8fb1001c 	lw	s1,28(sp)
    488c:	8fb00018 	lw	s0,24(sp)
    4890:	03e00008 	jr	ra
    4894:	27bd0028 	addiu	sp,sp,40
    4898:	1000ffec 	b	484c <OSTaskNameSet+0x60>
    489c:	90500036 	lbu	s0,54(v0)
    48a0:	0c001d43 	jal	750c <OS_CPU_SR_Restore>
    48a4:	00000000 	nop
    48a8:	24020043 	li	v0,67
    48ac:	1000ffd9 	b	4814 <OSTaskNameSet+0x28>
    48b0:	a2220000 	sb	v0,0(s1)
    48b4:	8fa40010 	lw	a0,16(sp)
    48b8:	0c001d43 	jal	750c <OS_CPU_SR_Restore>
    48bc:	00000000 	nop
    48c0:	24020043 	li	v0,67
    48c4:	1000ffd3 	b	4814 <OSTaskNameSet+0x28>
    48c8:	a2220000 	sb	v0,0(s1)

000048cc <OSTaskResume>:
    48cc:	27bdffd8 	addiu	sp,sp,-40
    48d0:	afb00020 	sw	s0,32(sp)
    48d4:	afbf0024 	sw	ra,36(sp)
    48d8:	309000ff 	andi	s0,a0,0xff
    48dc:	afa00010 	sw	zero,16(sp)
    48e0:	0c001d3c 	jal	74f0 <OS_CPU_SR_Save>
    48e4:	00108080 	sll	s0,s0,0x2
    48e8:	3c040001 	lui	a0,0x1
    48ec:	24849a70 	addiu	a0,a0,-26000
    48f0:	02048021 	addu	s0,s0,a0
    48f4:	8e030000 	lw	v1,0(s0)
    48f8:	afa20010 	sw	v0,16(sp)
    48fc:	10600030 	beqz	v1,49c0 <OSTaskResume+0xf4>
    4900:	24100001 	li	s0,1
    4904:	10700036 	beq	v1,s0,49e0 <OSTaskResume+0x114>
    4908:	00000000 	nop
    490c:	90620034 	lbu	v0,52(v1)
    4910:	30440008 	andi	a0,v0,0x8
    4914:	1080001a 	beqz	a0,4980 <OSTaskResume+0xb4>
    4918:	304200f7 	andi	v0,v0,0xf7
    491c:	14400038 	bnez	v0,4a00 <OSTaskResume+0x134>
    4920:	a0620034 	sb	v0,52(v1)
    4924:	8c640030 	lw	a0,48(v1)
    4928:	1480001d 	bnez	a0,49a0 <OSTaskResume+0xd4>
    492c:	afa20018 	sw	v0,24(sp)
    4930:	90650038 	lbu	a1,56(v1)
    4934:	27847b68 	addiu	a0,gp,31592
    4938:	00852821 	addu	a1,a0,a1
    493c:	93887b64 	lbu	t0,31588(gp)
    4940:	90a60000 	lbu	a2,0(a1)
    4944:	9067003a 	lbu	a3,58(v1)
    4948:	90630039 	lbu	v1,57(v1)
    494c:	8fa40010 	lw	a0,16(sp)
    4950:	00c31825 	or	v1,a2,v1
    4954:	00e83825 	or	a3,a3,t0
    4958:	a0a30000 	sb	v1,0(a1)
    495c:	0c001d43 	jal	750c <OS_CPU_SR_Restore>
    4960:	a3877b64 	sb	a3,31588(gp)
    4964:	93837b30 	lbu	v1,31536(gp)
    4968:	14700009 	bne	v1,s0,4990 <OSTaskResume+0xc4>
    496c:	8fa20018 	lw	v0,24(sp)
    4970:	0c001a02 	jal	6808 <OS_Sched>
    4974:	00000000 	nop
    4978:	10000005 	b	4990 <OSTaskResume+0xc4>
    497c:	8fa20018 	lw	v0,24(sp)
    4980:	8fa40010 	lw	a0,16(sp)
    4984:	0c001d43 	jal	750c <OS_CPU_SR_Restore>
    4988:	00000000 	nop
    498c:	24020044 	li	v0,68
    4990:	8fbf0024 	lw	ra,36(sp)
    4994:	8fb00020 	lw	s0,32(sp)
    4998:	03e00008 	jr	ra
    499c:	27bd0028 	addiu	sp,sp,40
    49a0:	8fa40010 	lw	a0,16(sp)
    49a4:	0c001d43 	jal	750c <OS_CPU_SR_Restore>
    49a8:	00000000 	nop
    49ac:	8fbf0024 	lw	ra,36(sp)
    49b0:	8fa20018 	lw	v0,24(sp)
    49b4:	8fb00020 	lw	s0,32(sp)
    49b8:	03e00008 	jr	ra
    49bc:	27bd0028 	addiu	sp,sp,40
    49c0:	8fa40010 	lw	a0,16(sp)
    49c4:	0c001d43 	jal	750c <OS_CPU_SR_Restore>
    49c8:	00000000 	nop
    49cc:	8fbf0024 	lw	ra,36(sp)
    49d0:	8fb00020 	lw	s0,32(sp)
    49d4:	24020046 	li	v0,70
    49d8:	03e00008 	jr	ra
    49dc:	27bd0028 	addiu	sp,sp,40
    49e0:	8fa40010 	lw	a0,16(sp)
    49e4:	0c001d43 	jal	750c <OS_CPU_SR_Restore>
    49e8:	00000000 	nop
    49ec:	8fbf0024 	lw	ra,36(sp)
    49f0:	8fb00020 	lw	s0,32(sp)
    49f4:	24020043 	li	v0,67
    49f8:	03e00008 	jr	ra
    49fc:	27bd0028 	addiu	sp,sp,40
    4a00:	8fa40010 	lw	a0,16(sp)
    4a04:	0c001d43 	jal	750c <OS_CPU_SR_Restore>
    4a08:	00000000 	nop
    4a0c:	1000ffe0 	b	4990 <OSTaskResume+0xc4>
    4a10:	00001025 	move	v0,zero

00004a14 <OSTaskStkChk>:
    4a14:	27bdffd8 	addiu	sp,sp,-40
    4a18:	aca00000 	sw	zero,0(a1)
    4a1c:	aca00004 	sw	zero,4(a1)
    4a20:	afb1001c 	sw	s1,28(sp)
    4a24:	afb00018 	sw	s0,24(sp)
    4a28:	afbf0024 	sw	ra,36(sp)
    4a2c:	afb20020 	sw	s2,32(sp)
    4a30:	00a08825 	move	s1,a1
    4a34:	309000ff 	andi	s0,a0,0xff
    4a38:	afa00010 	sw	zero,16(sp)
    4a3c:	0c001d3c 	jal	74f0 <OS_CPU_SR_Save>
    4a40:	00000000 	nop
    4a44:	afa20010 	sw	v0,16(sp)
    4a48:	240200ff 	li	v0,255
    4a4c:	12020017 	beq	s0,v0,4aac <OSTaskStkChk+0x98>
    4a50:	3c040001 	lui	a0,0x1
    4a54:	00108080 	sll	s0,s0,0x2
    4a58:	24849a70 	addiu	a0,a0,-26000
    4a5c:	02048021 	addu	s0,s0,a0
    4a60:	8e020000 	lw	v0,0(s0)
    4a64:	10400019 	beqz	v0,4acc <OSTaskStkChk+0xb8>
    4a68:	24030001 	li	v1,1
    4a6c:	10430017 	beq	v0,v1,4acc <OSTaskStkChk+0xb8>
    4a70:	00000000 	nop
    4a74:	94430010 	lhu	v1,16(v0)
    4a78:	8fa40010 	lw	a0,16(sp)
    4a7c:	30630001 	andi	v1,v1,0x1
    4a80:	1460001c 	bnez	v1,4af4 <OSTaskStkChk+0xe0>
    4a84:	00000000 	nop
    4a88:	0c001d43 	jal	750c <OS_CPU_SR_Restore>
    4a8c:	00000000 	nop
    4a90:	8fbf0024 	lw	ra,36(sp)
    4a94:	8fb20020 	lw	s2,32(sp)
    4a98:	8fb1001c 	lw	s1,28(sp)
    4a9c:	8fb00018 	lw	s0,24(sp)
    4aa0:	24020045 	li	v0,69
    4aa4:	03e00008 	jr	ra
    4aa8:	27bd0028 	addiu	sp,sp,40
    4aac:	8f827b78 	lw	v0,31608(gp)
    4ab0:	90500036 	lbu	s0,54(v0)
    4ab4:	24849a70 	addiu	a0,a0,-26000
    4ab8:	00108080 	sll	s0,s0,0x2
    4abc:	02048021 	addu	s0,s0,a0
    4ac0:	8e020000 	lw	v0,0(s0)
    4ac4:	1440ffe9 	bnez	v0,4a6c <OSTaskStkChk+0x58>
    4ac8:	24030001 	li	v1,1
    4acc:	8fa40010 	lw	a0,16(sp)
    4ad0:	0c001d43 	jal	750c <OS_CPU_SR_Restore>
    4ad4:	00000000 	nop
    4ad8:	8fbf0024 	lw	ra,36(sp)
    4adc:	8fb20020 	lw	s2,32(sp)
    4ae0:	8fb1001c 	lw	s1,28(sp)
    4ae4:	8fb00018 	lw	s0,24(sp)
    4ae8:	24020043 	li	v0,67
    4aec:	03e00008 	jr	ra
    4af0:	27bd0028 	addiu	sp,sp,40
    4af4:	8c500008 	lw	s0,8(v0)
    4af8:	0c001d43 	jal	750c <OS_CPU_SR_Restore>
    4afc:	8c52000c 	lw	s2,12(v0)
    4b00:	8e030000 	lw	v1,0(s0)
    4b04:	14600011 	bnez	v1,4b4c <OSTaskStkChk+0x138>
    4b08:	26020004 	addiu	v0,s0,4
    4b0c:	24420004 	addiu	v0,v0,4
    4b10:	8c44fffc 	lw	a0,-4(v0)
    4b14:	1080fffd 	beqz	a0,4b0c <OSTaskStkChk+0xf8>
    4b18:	24630001 	addiu	v1,v1,1
    4b1c:	00031080 	sll	v0,v1,0x2
    4b20:	02431823 	subu	v1,s2,v1
    4b24:	8fbf0024 	lw	ra,36(sp)
    4b28:	00031880 	sll	v1,v1,0x2
    4b2c:	ae220000 	sw	v0,0(s1)
    4b30:	ae230004 	sw	v1,4(s1)
    4b34:	8fb20020 	lw	s2,32(sp)
    4b38:	8fb1001c 	lw	s1,28(sp)
    4b3c:	8fb00018 	lw	s0,24(sp)
    4b40:	00001025 	move	v0,zero
    4b44:	03e00008 	jr	ra
    4b48:	27bd0028 	addiu	sp,sp,40
    4b4c:	00001025 	move	v0,zero
    4b50:	1000fff3 	b	4b20 <OSTaskStkChk+0x10c>
    4b54:	00001825 	move	v1,zero

00004b58 <OSTaskSuspend>:
    4b58:	27bdffd8 	addiu	sp,sp,-40
    4b5c:	afb0001c 	sw	s0,28(sp)
    4b60:	afbf0024 	sw	ra,36(sp)
    4b64:	afb10020 	sw	s1,32(sp)
    4b68:	309000ff 	andi	s0,a0,0xff
    4b6c:	afa00010 	sw	zero,16(sp)
    4b70:	0c001d3c 	jal	74f0 <OS_CPU_SR_Save>
    4b74:	00000000 	nop
    4b78:	afa20010 	sw	v0,16(sp)
    4b7c:	240200ff 	li	v0,255
    4b80:	12020035 	beq	s0,v0,4c58 <OSTaskSuspend+0x100>
    4b84:	8f827b78 	lw	v0,31608(gp)
    4b88:	3c040001 	lui	a0,0x1
    4b8c:	90510036 	lbu	s1,54(v0)
    4b90:	24849a70 	addiu	a0,a0,-26000
    4b94:	02308826 	xor	s1,s1,s0
    4b98:	00108080 	sll	s0,s0,0x2
    4b9c:	02048021 	addu	s0,s0,a0
    4ba0:	8e020000 	lw	v0,0(s0)
    4ba4:	10400034 	beqz	v0,4c78 <OSTaskSuspend+0x120>
    4ba8:	2e310001 	sltiu	s1,s1,1
    4bac:	24030001 	li	v1,1
    4bb0:	1043003a 	beq	v0,v1,4c9c <OSTaskSuspend+0x144>
    4bb4:	27837b68 	addiu	v1,gp,31592
    4bb8:	90440038 	lbu	a0,56(v0)
    4bbc:	00642021 	addu	a0,v1,a0
    4bc0:	90430039 	lbu	v1,57(v0)
    4bc4:	90850000 	lbu	a1,0(a0)
    4bc8:	00031827 	nor	v1,zero,v1
    4bcc:	00651824 	and	v1,v1,a1
    4bd0:	1060000d 	beqz	v1,4c08 <OSTaskSuspend+0xb0>
    4bd4:	a0830000 	sb	v1,0(a0)
    4bd8:	90430034 	lbu	v1,52(v0)
    4bdc:	8fa40010 	lw	a0,16(sp)
    4be0:	34630008 	ori	v1,v1,0x8
    4be4:	0c001d43 	jal	750c <OS_CPU_SR_Restore>
    4be8:	a0430034 	sb	v1,52(v0)
    4bec:	16200012 	bnez	s1,4c38 <OSTaskSuspend+0xe0>
    4bf0:	8fbf0024 	lw	ra,36(sp)
    4bf4:	8fb10020 	lw	s1,32(sp)
    4bf8:	8fb0001c 	lw	s0,28(sp)
    4bfc:	00001025 	move	v0,zero
    4c00:	03e00008 	jr	ra
    4c04:	27bd0028 	addiu	sp,sp,40
    4c08:	9043003a 	lbu	v1,58(v0)
    4c0c:	93847b64 	lbu	a0,31588(gp)
    4c10:	00031827 	nor	v1,zero,v1
    4c14:	00641824 	and	v1,v1,a0
    4c18:	a3837b64 	sb	v1,31588(gp)
    4c1c:	90430034 	lbu	v1,52(v0)
    4c20:	8fa40010 	lw	a0,16(sp)
    4c24:	34630008 	ori	v1,v1,0x8
    4c28:	0c001d43 	jal	750c <OS_CPU_SR_Restore>
    4c2c:	a0430034 	sb	v1,52(v0)
    4c30:	1220fff0 	beqz	s1,4bf4 <OSTaskSuspend+0x9c>
    4c34:	8fbf0024 	lw	ra,36(sp)
    4c38:	0c001a02 	jal	6808 <OS_Sched>
    4c3c:	00000000 	nop
    4c40:	8fbf0024 	lw	ra,36(sp)
    4c44:	8fb10020 	lw	s1,32(sp)
    4c48:	8fb0001c 	lw	s0,28(sp)
    4c4c:	00001025 	move	v0,zero
    4c50:	03e00008 	jr	ra
    4c54:	27bd0028 	addiu	sp,sp,40
    4c58:	3c040001 	lui	a0,0x1
    4c5c:	90500036 	lbu	s0,54(v0)
    4c60:	24849a70 	addiu	a0,a0,-26000
    4c64:	00108080 	sll	s0,s0,0x2
    4c68:	02048021 	addu	s0,s0,a0
    4c6c:	8e020000 	lw	v0,0(s0)
    4c70:	1440ffce 	bnez	v0,4bac <OSTaskSuspend+0x54>
    4c74:	24110001 	li	s1,1
    4c78:	8fa40010 	lw	a0,16(sp)
    4c7c:	0c001d43 	jal	750c <OS_CPU_SR_Restore>
    4c80:	00000000 	nop
    4c84:	8fbf0024 	lw	ra,36(sp)
    4c88:	8fb10020 	lw	s1,32(sp)
    4c8c:	8fb0001c 	lw	s0,28(sp)
    4c90:	24020048 	li	v0,72
    4c94:	03e00008 	jr	ra
    4c98:	27bd0028 	addiu	sp,sp,40
    4c9c:	8fa40010 	lw	a0,16(sp)
    4ca0:	0c001d43 	jal	750c <OS_CPU_SR_Restore>
    4ca4:	00000000 	nop
    4ca8:	8fbf0024 	lw	ra,36(sp)
    4cac:	8fb10020 	lw	s1,32(sp)
    4cb0:	8fb0001c 	lw	s0,28(sp)
    4cb4:	24020043 	li	v0,67
    4cb8:	03e00008 	jr	ra
    4cbc:	27bd0028 	addiu	sp,sp,40

00004cc0 <OSTaskQuery>:
    4cc0:	27bdffd8 	addiu	sp,sp,-40
    4cc4:	afb10020 	sw	s1,32(sp)
    4cc8:	afb0001c 	sw	s0,28(sp)
    4ccc:	afbf0024 	sw	ra,36(sp)
    4cd0:	00a08825 	move	s1,a1
    4cd4:	309000ff 	andi	s0,a0,0xff
    4cd8:	afa00010 	sw	zero,16(sp)
    4cdc:	0c001d3c 	jal	74f0 <OS_CPU_SR_Save>
    4ce0:	00000000 	nop
    4ce4:	afa20010 	sw	v0,16(sp)
    4ce8:	240200ff 	li	v0,255
    4cec:	12020014 	beq	s0,v0,4d40 <OSTaskQuery+0x80>
    4cf0:	3c040001 	lui	a0,0x1
    4cf4:	00108080 	sll	s0,s0,0x2
    4cf8:	24849a70 	addiu	a0,a0,-26000
    4cfc:	02048021 	addu	s0,s0,a0
    4d00:	8e050000 	lw	a1,0(s0)
    4d04:	10a00016 	beqz	a1,4d60 <OSTaskQuery+0xa0>
    4d08:	24030001 	li	v1,1
    4d0c:	10a3001d 	beq	a1,v1,4d84 <OSTaskQuery+0xc4>
    4d10:	02202025 	move	a0,s1
    4d14:	0c0019f4 	jal	67d0 <OS_MemCopy>
    4d18:	24060058 	li	a2,88
    4d1c:	8fa40010 	lw	a0,16(sp)
    4d20:	0c001d43 	jal	750c <OS_CPU_SR_Restore>
    4d24:	00000000 	nop
    4d28:	8fbf0024 	lw	ra,36(sp)
    4d2c:	8fb10020 	lw	s1,32(sp)
    4d30:	8fb0001c 	lw	s0,28(sp)
    4d34:	00001025 	move	v0,zero
    4d38:	03e00008 	jr	ra
    4d3c:	27bd0028 	addiu	sp,sp,40
    4d40:	8f827b78 	lw	v0,31608(gp)
    4d44:	90500036 	lbu	s0,54(v0)
    4d48:	24849a70 	addiu	a0,a0,-26000
    4d4c:	00108080 	sll	s0,s0,0x2
    4d50:	02048021 	addu	s0,s0,a0
    4d54:	8e050000 	lw	a1,0(s0)
    4d58:	14a0ffec 	bnez	a1,4d0c <OSTaskQuery+0x4c>
    4d5c:	24030001 	li	v1,1
    4d60:	8fa40010 	lw	a0,16(sp)
    4d64:	0c001d43 	jal	750c <OS_CPU_SR_Restore>
    4d68:	00000000 	nop
    4d6c:	8fbf0024 	lw	ra,36(sp)
    4d70:	8fb10020 	lw	s1,32(sp)
    4d74:	8fb0001c 	lw	s0,28(sp)
    4d78:	24020029 	li	v0,41
    4d7c:	03e00008 	jr	ra
    4d80:	27bd0028 	addiu	sp,sp,40
    4d84:	8fa40010 	lw	a0,16(sp)
    4d88:	0c001d43 	jal	750c <OS_CPU_SR_Restore>
    4d8c:	00000000 	nop
    4d90:	8fbf0024 	lw	ra,36(sp)
    4d94:	8fb10020 	lw	s1,32(sp)
    4d98:	8fb0001c 	lw	s0,28(sp)
    4d9c:	24020043 	li	v0,67
    4da0:	03e00008 	jr	ra
    4da4:	27bd0028 	addiu	sp,sp,40

00004da8 <OSTaskRegGet>:
    4da8:	27bdffd8 	addiu	sp,sp,-40
    4dac:	afb20020 	sw	s2,32(sp)
    4db0:	afb1001c 	sw	s1,28(sp)
    4db4:	afb00018 	sw	s0,24(sp)
    4db8:	afbf0024 	sw	ra,36(sp)
    4dbc:	00c09025 	move	s2,a2
    4dc0:	309100ff 	andi	s1,a0,0xff
    4dc4:	30b000ff 	andi	s0,a1,0xff
    4dc8:	afa00010 	sw	zero,16(sp)
    4dcc:	0c001d3c 	jal	74f0 <OS_CPU_SR_Save>
    4dd0:	00000000 	nop
    4dd4:	afa20010 	sw	v0,16(sp)
    4dd8:	240200ff 	li	v0,255
    4ddc:	12220013 	beq	s1,v0,4e2c <OSTaskRegGet+0x84>
    4de0:	3c040001 	lui	a0,0x1
    4de4:	24849a70 	addiu	a0,a0,-26000
    4de8:	00118880 	sll	s1,s1,0x2
    4dec:	02248821 	addu	s1,s1,a0
    4df0:	8e250000 	lw	a1,0(s1)
    4df4:	26100014 	addiu	s0,s0,20
    4df8:	8fa40010 	lw	a0,16(sp)
    4dfc:	00108080 	sll	s0,s0,0x2
    4e00:	00b08021 	addu	s0,a1,s0
    4e04:	0c001d43 	jal	750c <OS_CPU_SR_Restore>
    4e08:	8e100004 	lw	s0,4(s0)
    4e0c:	a2400000 	sb	zero,0(s2)
    4e10:	8fbf0024 	lw	ra,36(sp)
    4e14:	02001025 	move	v0,s0
    4e18:	8fb20020 	lw	s2,32(sp)
    4e1c:	8fb1001c 	lw	s1,28(sp)
    4e20:	8fb00018 	lw	s0,24(sp)
    4e24:	03e00008 	jr	ra
    4e28:	27bd0028 	addiu	sp,sp,40
    4e2c:	8f857b78 	lw	a1,31608(gp)
    4e30:	26100014 	addiu	s0,s0,20
    4e34:	8fa40010 	lw	a0,16(sp)
    4e38:	00108080 	sll	s0,s0,0x2
    4e3c:	00b08021 	addu	s0,a1,s0
    4e40:	0c001d43 	jal	750c <OS_CPU_SR_Restore>
    4e44:	8e100004 	lw	s0,4(s0)
    4e48:	a2400000 	sb	zero,0(s2)
    4e4c:	8fbf0024 	lw	ra,36(sp)
    4e50:	02001025 	move	v0,s0
    4e54:	8fb20020 	lw	s2,32(sp)
    4e58:	8fb1001c 	lw	s1,28(sp)
    4e5c:	8fb00018 	lw	s0,24(sp)
    4e60:	03e00008 	jr	ra
    4e64:	27bd0028 	addiu	sp,sp,40

00004e68 <OSTaskRegSet>:
    4e68:	27bdffd0 	addiu	sp,sp,-48
    4e6c:	afb30028 	sw	s3,40(sp)
    4e70:	afb20024 	sw	s2,36(sp)
    4e74:	afb10020 	sw	s1,32(sp)
    4e78:	afb0001c 	sw	s0,28(sp)
    4e7c:	afbf002c 	sw	ra,44(sp)
    4e80:	00c09825 	move	s3,a2
    4e84:	00e09025 	move	s2,a3
    4e88:	309100ff 	andi	s1,a0,0xff
    4e8c:	30b000ff 	andi	s0,a1,0xff
    4e90:	afa00010 	sw	zero,16(sp)
    4e94:	0c001d3c 	jal	74f0 <OS_CPU_SR_Save>
    4e98:	00000000 	nop
    4e9c:	afa20010 	sw	v0,16(sp)
    4ea0:	240200ff 	li	v0,255
    4ea4:	12220013 	beq	s1,v0,4ef4 <OSTaskRegSet+0x8c>
    4ea8:	3c040001 	lui	a0,0x1
    4eac:	24849a70 	addiu	a0,a0,-26000
    4eb0:	00118880 	sll	s1,s1,0x2
    4eb4:	02248821 	addu	s1,s1,a0
    4eb8:	8e250000 	lw	a1,0(s1)
    4ebc:	26100014 	addiu	s0,s0,20
    4ec0:	00108080 	sll	s0,s0,0x2
    4ec4:	00b08021 	addu	s0,a1,s0
    4ec8:	8fa40010 	lw	a0,16(sp)
    4ecc:	0c001d43 	jal	750c <OS_CPU_SR_Restore>
    4ed0:	ae130004 	sw	s3,4(s0)
    4ed4:	a2400000 	sb	zero,0(s2)
    4ed8:	8fbf002c 	lw	ra,44(sp)
    4edc:	8fb30028 	lw	s3,40(sp)
    4ee0:	8fb20024 	lw	s2,36(sp)
    4ee4:	8fb10020 	lw	s1,32(sp)
    4ee8:	8fb0001c 	lw	s0,28(sp)
    4eec:	03e00008 	jr	ra
    4ef0:	27bd0030 	addiu	sp,sp,48
    4ef4:	8f857b78 	lw	a1,31608(gp)
    4ef8:	26100014 	addiu	s0,s0,20
    4efc:	00108080 	sll	s0,s0,0x2
    4f00:	00b08021 	addu	s0,a1,s0
    4f04:	8fa40010 	lw	a0,16(sp)
    4f08:	0c001d43 	jal	750c <OS_CPU_SR_Restore>
    4f0c:	ae130004 	sw	s3,4(s0)
    4f10:	a2400000 	sb	zero,0(s2)
    4f14:	8fbf002c 	lw	ra,44(sp)
    4f18:	8fb30028 	lw	s3,40(sp)
    4f1c:	8fb20024 	lw	s2,36(sp)
    4f20:	8fb10020 	lw	s1,32(sp)
    4f24:	8fb0001c 	lw	s0,28(sp)
    4f28:	03e00008 	jr	ra
    4f2c:	27bd0030 	addiu	sp,sp,48

00004f30 <OS_TaskReturn>:
    4f30:	8f847b78 	lw	a0,31608(gp)
    4f34:	27bdffe8 	addiu	sp,sp,-24
    4f38:	afbf0014 	sw	ra,20(sp)
    4f3c:	0c001c50 	jal	7140 <OSTaskReturnHook>
    4f40:	00000000 	nop
    4f44:	8fbf0014 	lw	ra,20(sp)
    4f48:	240400ff 	li	a0,255
    4f4c:	080010f3 	j	43cc <OSTaskDel>
    4f50:	27bd0018 	addiu	sp,sp,24

00004f54 <OS_TaskStkClr>:
    4f54:	30c60003 	andi	a2,a2,0x3
    4f58:	24020003 	li	v0,3
    4f5c:	14c20007 	bne	a2,v0,4f7c <OS_TaskStkClr+0x28>
    4f60:	00000000 	nop
    4f64:	10a00005 	beqz	a1,4f7c <OS_TaskStkClr+0x28>
    4f68:	00000000 	nop
    4f6c:	24840004 	addiu	a0,a0,4
    4f70:	24a5ffff 	addiu	a1,a1,-1
    4f74:	14a0fffd 	bnez	a1,4f6c <OS_TaskStkClr+0x18>
    4f78:	ac80fffc 	sw	zero,-4(a0)
    4f7c:	03e00008 	jr	ra
    4f80:	00000000 	nop

00004f84 <OSTimeDly>:
    4f84:	93827b74 	lbu	v0,31604(gp)
    4f88:	27bdffe0 	addiu	sp,sp,-32
    4f8c:	afbf001c 	sw	ra,28(sp)
    4f90:	afb00018 	sw	s0,24(sp)
    4f94:	afa00010 	sw	zero,16(sp)
    4f98:	14400005 	bnez	v0,4fb0 <OSTimeDly+0x2c>
    4f9c:	93827b28 	lbu	v0,31528(gp)
    4fa0:	14400004 	bnez	v0,4fb4 <OSTimeDly+0x30>
    4fa4:	8fbf001c 	lw	ra,28(sp)
    4fa8:	14800005 	bnez	a0,4fc0 <OSTimeDly+0x3c>
    4fac:	00000000 	nop
    4fb0:	8fbf001c 	lw	ra,28(sp)
    4fb4:	8fb00018 	lw	s0,24(sp)
    4fb8:	03e00008 	jr	ra
    4fbc:	27bd0020 	addiu	sp,sp,32
    4fc0:	0c001d3c 	jal	74f0 <OS_CPU_SR_Save>
    4fc4:	00808025 	move	s0,a0
    4fc8:	8f857b78 	lw	a1,31608(gp)
    4fcc:	27847b68 	addiu	a0,gp,31592
    4fd0:	90a60038 	lbu	a2,56(a1)
    4fd4:	90a30039 	lbu	v1,57(a1)
    4fd8:	00862021 	addu	a0,a0,a2
    4fdc:	90860000 	lbu	a2,0(a0)
    4fe0:	00031827 	nor	v1,zero,v1
    4fe4:	00661824 	and	v1,v1,a2
    4fe8:	afa20010 	sw	v0,16(sp)
    4fec:	14600006 	bnez	v1,5008 <OSTimeDly+0x84>
    4ff0:	a0830000 	sb	v1,0(a0)
    4ff4:	90a2003a 	lbu	v0,58(a1)
    4ff8:	93837b64 	lbu	v1,31588(gp)
    4ffc:	00021027 	nor	v0,zero,v0
    5000:	00431024 	and	v0,v0,v1
    5004:	a3827b64 	sb	v0,31588(gp)
    5008:	8fa40010 	lw	a0,16(sp)
    500c:	0c001d43 	jal	750c <OS_CPU_SR_Restore>
    5010:	acb00030 	sw	s0,48(a1)
    5014:	0c001a02 	jal	6808 <OS_Sched>
    5018:	00000000 	nop
    501c:	8fbf001c 	lw	ra,28(sp)
    5020:	8fb00018 	lw	s0,24(sp)
    5024:	03e00008 	jr	ra
    5028:	27bd0020 	addiu	sp,sp,32

0000502c <OSTimeDlyHMSM>:
    502c:	93827b74 	lbu	v0,31604(gp)
    5030:	27bdffe0 	addiu	sp,sp,-32
    5034:	10400005 	beqz	v0,504c <OSTimeDlyHMSM+0x20>
    5038:	afbf001c 	sw	ra,28(sp)
    503c:	24020055 	li	v0,85
    5040:	8fbf001c 	lw	ra,28(sp)
    5044:	03e00008 	jr	ra
    5048:	27bd0020 	addiu	sp,sp,32
    504c:	93827b28 	lbu	v0,31528(gp)
    5050:	10400004 	beqz	v0,5064 <OSTimeDlyHMSM+0x38>
    5054:	8fbf001c 	lw	ra,28(sp)
    5058:	24020032 	li	v0,50
    505c:	03e00008 	jr	ra
    5060:	27bd0020 	addiu	sp,sp,32
    5064:	308400ff 	andi	a0,a0,0xff
    5068:	00041900 	sll	v1,a0,0x4
    506c:	30a500ff 	andi	a1,a1,0xff
    5070:	00042200 	sll	a0,a0,0x8
    5074:	00832023 	subu	a0,a0,v1
    5078:	00051880 	sll	v1,a1,0x2
    507c:	00052980 	sll	a1,a1,0x6
    5080:	00a32823 	subu	a1,a1,v1
    5084:	30e7ffff 	andi	a3,a3,0xffff
    5088:	00041900 	sll	v1,a0,0x4
    508c:	30c600ff 	andi	a2,a2,0xff
    5090:	00074080 	sll	t0,a3,0x2
    5094:	00a63021 	addu	a2,a1,a2
    5098:	00641823 	subu	v1,v1,a0
    509c:	00073900 	sll	a3,a3,0x4
    50a0:	01073821 	addu	a3,t0,a3
    50a4:	00c31821 	addu	v1,a2,v1
    50a8:	00032080 	sll	a0,v1,0x2
    50ac:	00072880 	sll	a1,a3,0x2
    50b0:	00031900 	sll	v1,v1,0x4
    50b4:	00831821 	addu	v1,a0,v1
    50b8:	00e53821 	addu	a3,a3,a1
    50bc:	3c041062 	lui	a0,0x1062
    50c0:	24e701f4 	addiu	a3,a3,500
    50c4:	24844dd3 	addiu	a0,a0,19923
    50c8:	00e40019 	multu	a3,a0
    50cc:	00032080 	sll	a0,v1,0x2
    50d0:	00002810 	mfhi	a1
    50d4:	00641821 	addu	v1,v1,a0
    50d8:	00052182 	srl	a0,a1,0x6
    50dc:	00642021 	addu	a0,v1,a0
    50e0:	0c0013e1 	jal	4f84 <OSTimeDly>
    50e4:	afa20010 	sw	v0,16(sp)
    50e8:	1000ffd5 	b	5040 <OSTimeDlyHMSM+0x14>
    50ec:	8fa20010 	lw	v0,16(sp)

000050f0 <OSTimeDlyResume>:
    50f0:	27bdffd8 	addiu	sp,sp,-40
    50f4:	afb00020 	sw	s0,32(sp)
    50f8:	309000ff 	andi	s0,a0,0xff
    50fc:	2e02003f 	sltiu	v0,s0,63
    5100:	afbf0024 	sw	ra,36(sp)
    5104:	afa00010 	sw	zero,16(sp)
    5108:	14400005 	bnez	v0,5120 <OSTimeDlyResume+0x30>
    510c:	2402002a 	li	v0,42
    5110:	8fbf0024 	lw	ra,36(sp)
    5114:	8fb00020 	lw	s0,32(sp)
    5118:	03e00008 	jr	ra
    511c:	27bd0028 	addiu	sp,sp,40
    5120:	0c001d3c 	jal	74f0 <OS_CPU_SR_Save>
    5124:	00108080 	sll	s0,s0,0x2
    5128:	3c040001 	lui	a0,0x1
    512c:	24849a70 	addiu	a0,a0,-26000
    5130:	02048021 	addu	s0,s0,a0
    5134:	8e030000 	lw	v1,0(s0)
    5138:	afa20010 	sw	v0,16(sp)
    513c:	1060001d 	beqz	v1,51b4 <OSTimeDlyResume+0xc4>
    5140:	24040001 	li	a0,1
    5144:	1064001b 	beq	v1,a0,51b4 <OSTimeDlyResume+0xc4>
    5148:	00000000 	nop
    514c:	8c620030 	lw	v0,48(v1)
    5150:	1040000f 	beqz	v0,5190 <OSTimeDlyResume+0xa0>
    5154:	00000000 	nop
    5158:	90620034 	lbu	v0,52(v1)
    515c:	30450037 	andi	a1,v0,0x37
    5160:	14a00010 	bnez	a1,51a4 <OSTimeDlyResume+0xb4>
    5164:	ac600030 	sw	zero,48(v1)
    5168:	a0600035 	sb	zero,53(v1)
    516c:	30420008 	andi	v0,v0,0x8
    5170:	304200ff 	andi	v0,v0,0xff
    5174:	10400014 	beqz	v0,51c8 <OSTimeDlyResume+0xd8>
    5178:	27847b68 	addiu	a0,gp,31592
    517c:	8fa40010 	lw	a0,16(sp)
    5180:	0c001d43 	jal	750c <OS_CPU_SR_Restore>
    5184:	00000000 	nop
    5188:	1000ffe1 	b	5110 <OSTimeDlyResume+0x20>
    518c:	00001025 	move	v0,zero
    5190:	8fa40010 	lw	a0,16(sp)
    5194:	0c001d43 	jal	750c <OS_CPU_SR_Restore>
    5198:	00000000 	nop
    519c:	1000ffdc 	b	5110 <OSTimeDlyResume+0x20>
    51a0:	24020050 	li	v0,80
    51a4:	304200c8 	andi	v0,v0,0xc8
    51a8:	a0620034 	sb	v0,52(v1)
    51ac:	1000ffef 	b	516c <OSTimeDlyResume+0x7c>
    51b0:	a0640035 	sb	a0,53(v1)
    51b4:	8fa40010 	lw	a0,16(sp)
    51b8:	0c001d43 	jal	750c <OS_CPU_SR_Restore>
    51bc:	00000000 	nop
    51c0:	1000ffd3 	b	5110 <OSTimeDlyResume+0x20>
    51c4:	24020043 	li	v0,67
    51c8:	90650038 	lbu	a1,56(v1)
    51cc:	00852821 	addu	a1,a0,a1
    51d0:	93887b64 	lbu	t0,31588(gp)
    51d4:	90a60000 	lbu	a2,0(a1)
    51d8:	9067003a 	lbu	a3,58(v1)
    51dc:	90630039 	lbu	v1,57(v1)
    51e0:	8fa40010 	lw	a0,16(sp)
    51e4:	00e83825 	or	a3,a3,t0
    51e8:	00c31825 	or	v1,a2,v1
    51ec:	afa20018 	sw	v0,24(sp)
    51f0:	a3877b64 	sb	a3,31588(gp)
    51f4:	0c001d43 	jal	750c <OS_CPU_SR_Restore>
    51f8:	a0a30000 	sb	v1,0(a1)
    51fc:	0c001a02 	jal	6808 <OS_Sched>
    5200:	00000000 	nop
    5204:	1000ffc2 	b	5110 <OSTimeDlyResume+0x20>
    5208:	8fa20018 	lw	v0,24(sp)

0000520c <OSTimeGet>:
    520c:	27bdffe0 	addiu	sp,sp,-32
    5210:	afbf001c 	sw	ra,28(sp)
    5214:	afb00018 	sw	s0,24(sp)
    5218:	afa00010 	sw	zero,16(sp)
    521c:	0c001d3c 	jal	74f0 <OS_CPU_SR_Save>
    5220:	00000000 	nop
    5224:	afa20010 	sw	v0,16(sp)
    5228:	8f907b80 	lw	s0,31616(gp)
    522c:	8fa40010 	lw	a0,16(sp)
    5230:	0c001d43 	jal	750c <OS_CPU_SR_Restore>
    5234:	00000000 	nop
    5238:	8fbf001c 	lw	ra,28(sp)
    523c:	02001025 	move	v0,s0
    5240:	8fb00018 	lw	s0,24(sp)
    5244:	03e00008 	jr	ra
    5248:	27bd0020 	addiu	sp,sp,32

0000524c <OSTimeSet>:
    524c:	27bdffe0 	addiu	sp,sp,-32
    5250:	afbf001c 	sw	ra,28(sp)
    5254:	afb00018 	sw	s0,24(sp)
    5258:	afa00010 	sw	zero,16(sp)
    525c:	0c001d3c 	jal	74f0 <OS_CPU_SR_Save>
    5260:	00808025 	move	s0,a0
    5264:	afa20010 	sw	v0,16(sp)
    5268:	af907b80 	sw	s0,31616(gp)
    526c:	8fa40010 	lw	a0,16(sp)
    5270:	0c001d43 	jal	750c <OS_CPU_SR_Restore>
    5274:	00000000 	nop
    5278:	8fbf001c 	lw	ra,28(sp)
    527c:	8fb00018 	lw	s0,24(sp)
    5280:	03e00008 	jr	ra
    5284:	27bd0020 	addiu	sp,sp,32

00005288 <OSTmr_Link>:
    5288:	24020003 	li	v0,3
    528c:	a0820025 	sb	v0,37(a0)
    5290:	24020001 	li	v0,1
    5294:	10a20005 	beq	a1,v0,52ac <OSTmr_Link+0x24>
    5298:	8f837b7c 	lw	v1,31612(gp)
    529c:	8c820018 	lw	v0,24(a0)
    52a0:	14400015 	bnez	v0,52f8 <OSTmr_Link+0x70>
    52a4:	00431021 	addu	v0,v0,v1
    52a8:	8f837b7c 	lw	v1,31612(gp)
    52ac:	8c82001c 	lw	v0,28(a0)
    52b0:	00431021 	addu	v0,v0,v1
    52b4:	ac820014 	sw	v0,20(a0)
    52b8:	3c030001 	lui	v1,0x1
    52bc:	30420007 	andi	v0,v0,0x7
    52c0:	24638808 	addiu	v1,v1,-30712
    52c4:	000210c0 	sll	v0,v0,0x3
    52c8:	00431021 	addu	v0,v0,v1
    52cc:	8c430000 	lw	v1,0(v0)
    52d0:	10600012 	beqz	v1,531c <OSTmr_Link+0x94>
    52d4:	00000000 	nop
    52d8:	94450004 	lhu	a1,4(v0)
    52dc:	ac440000 	sw	a0,0(v0)
    52e0:	24a50001 	addiu	a1,a1,1
    52e4:	ac83000c 	sw	v1,12(a0)
    52e8:	ac640010 	sw	a0,16(v1)
    52ec:	a4450004 	sh	a1,4(v0)
    52f0:	03e00008 	jr	ra
    52f4:	ac800010 	sw	zero,16(a0)
    52f8:	ac820014 	sw	v0,20(a0)
    52fc:	3c030001 	lui	v1,0x1
    5300:	30420007 	andi	v0,v0,0x7
    5304:	24638808 	addiu	v1,v1,-30712
    5308:	000210c0 	sll	v0,v0,0x3
    530c:	00431021 	addu	v0,v0,v1
    5310:	8c430000 	lw	v1,0(v0)
    5314:	1460fff0 	bnez	v1,52d8 <OSTmr_Link+0x50>
    5318:	00000000 	nop
    531c:	24030001 	li	v1,1
    5320:	ac440000 	sw	a0,0(v0)
    5324:	ac80000c 	sw	zero,12(a0)
    5328:	a4430004 	sh	v1,4(v0)
    532c:	03e00008 	jr	ra
    5330:	ac800010 	sw	zero,16(a0)

00005334 <OSTmr_Unlink>:
    5334:	8c820014 	lw	v0,20(a0)
    5338:	30420007 	andi	v0,v0,0x7
    533c:	000218c0 	sll	v1,v0,0x3
    5340:	3c020001 	lui	v0,0x1
    5344:	24428808 	addiu	v0,v0,-30712
    5348:	00432821 	addu	a1,v0,v1
    534c:	8ca60000 	lw	a2,0(a1)
    5350:	1086000f 	beq	a0,a2,5390 <OSTmr_Unlink+0x5c>
    5354:	00000000 	nop
    5358:	8c860010 	lw	a2,16(a0)
    535c:	8c85000c 	lw	a1,12(a0)
    5360:	10a00002 	beqz	a1,536c <OSTmr_Unlink+0x38>
    5364:	acc5000c 	sw	a1,12(a2)
    5368:	aca60010 	sw	a2,16(a1)
    536c:	24050001 	li	a1,1
    5370:	a0850025 	sb	a1,37(a0)
    5374:	00431021 	addu	v0,v0,v1
    5378:	94430004 	lhu	v1,4(v0)
    537c:	ac80000c 	sw	zero,12(a0)
    5380:	2463ffff 	addiu	v1,v1,-1
    5384:	ac800010 	sw	zero,16(a0)
    5388:	03e00008 	jr	ra
    538c:	a4430004 	sh	v1,4(v0)
    5390:	8c86000c 	lw	a2,12(a0)
    5394:	10c0fff5 	beqz	a2,536c <OSTmr_Unlink+0x38>
    5398:	aca60000 	sw	a2,0(a1)
    539c:	24050001 	li	a1,1
    53a0:	acc00010 	sw	zero,16(a2)
    53a4:	00431021 	addu	v0,v0,v1
    53a8:	a0850025 	sb	a1,37(a0)
    53ac:	94430004 	lhu	v1,4(v0)
    53b0:	ac80000c 	sw	zero,12(a0)
    53b4:	2463ffff 	addiu	v1,v1,-1
    53b8:	ac800010 	sw	zero,16(a0)
    53bc:	03e00008 	jr	ra
    53c0:	a4430004 	sh	v1,4(v0)

000053c4 <OSTmr_Task>:
    53c4:	27bdffd8 	addiu	sp,sp,-40
    53c8:	afb20020 	sw	s2,32(sp)
    53cc:	3c120001 	lui	s2,0x1
    53d0:	afb1001c 	sw	s1,28(sp)
    53d4:	afbf0024 	sw	ra,36(sp)
    53d8:	afb00018 	sw	s0,24(sp)
    53dc:	26528808 	addiu	s2,s2,-30712
    53e0:	24110002 	li	s1,2
    53e4:	8f847b2c 	lw	a0,31532(gp)
    53e8:	27a60010 	addiu	a2,sp,16
    53ec:	0c000e7b 	jal	39ec <OSSemPend>
    53f0:	00002825 	move	a1,zero
    53f4:	0c00187c 	jal	61f0 <OSSchedLock>
    53f8:	00000000 	nop
    53fc:	8f827b7c 	lw	v0,31612(gp)
    5400:	24420001 	addiu	v0,v0,1
    5404:	30430007 	andi	v1,v0,0x7
    5408:	000318c0 	sll	v1,v1,0x3
    540c:	02431821 	addu	v1,s2,v1
    5410:	8c670000 	lw	a3,0(v1)
    5414:	10e00017 	beqz	a3,5474 <OSTmr_Task+0xb0>
    5418:	af827b7c 	sw	v0,31612(gp)
    541c:	8ce30014 	lw	v1,20(a3)
    5420:	10430007 	beq	v0,v1,5440 <OSTmr_Task+0x7c>
    5424:	8cf0000c 	lw	s0,12(a3)
    5428:	12000012 	beqz	s0,5474 <OSTmr_Task+0xb0>
    542c:	02003825 	move	a3,s0
    5430:	8f827b7c 	lw	v0,31612(gp)
    5434:	8ce30014 	lw	v1,20(a3)
    5438:	1443fffb 	bne	v0,v1,5428 <OSTmr_Task+0x64>
    543c:	8cf0000c 	lw	s0,12(a3)
    5440:	0c0014cd 	jal	5334 <OSTmr_Unlink>
    5444:	00e02025 	move	a0,a3
    5448:	90e20024 	lbu	v0,36(a3)
    544c:	1051000d 	beq	v0,s1,5484 <OSTmr_Task+0xc0>
    5450:	24050001 	li	a1,1
    5454:	a0f10025 	sb	s1,37(a3)
    5458:	8ce20004 	lw	v0,4(a3)
    545c:	1040fff2 	beqz	v0,5428 <OSTmr_Task+0x64>
    5460:	00e02025 	move	a0,a3
    5464:	0040f809 	jalr	v0
    5468:	8ce50008 	lw	a1,8(a3)
    546c:	1600fff0 	bnez	s0,5430 <OSTmr_Task+0x6c>
    5470:	02003825 	move	a3,s0
    5474:	0c001b53 	jal	6d4c <OSSchedUnlock>
    5478:	00000000 	nop
    547c:	1000ffda 	b	53e8 <OSTmr_Task+0x24>
    5480:	8f847b2c 	lw	a0,31532(gp)
    5484:	0c0014a2 	jal	5288 <OSTmr_Link>
    5488:	00e02025 	move	a0,a3
    548c:	1000fff3 	b	545c <OSTmr_Task+0x98>
    5490:	8ce20004 	lw	v0,4(a3)

00005494 <OSTmrCreate>:
    5494:	93827b74 	lbu	v0,31604(gp)
    5498:	27bdffd0 	addiu	sp,sp,-48
    549c:	afb30020 	sw	s3,32(sp)
    54a0:	afbf002c 	sw	ra,44(sp)
    54a4:	afb50028 	sw	s5,40(sp)
    54a8:	afb40024 	sw	s4,36(sp)
    54ac:	afb2001c 	sw	s2,28(sp)
    54b0:	afb10018 	sw	s1,24(sp)
    54b4:	afb00014 	sw	s0,20(sp)
    54b8:	14400028 	bnez	v0,555c <OSTmrCreate+0xc8>
    54bc:	8fb30048 	lw	s3,72(sp)
    54c0:	30d500ff 	andi	s5,a2,0xff
    54c4:	00e08825 	move	s1,a3
    54c8:	00a09025 	move	s2,a1
    54cc:	0c00187c 	jal	61f0 <OSSchedLock>
    54d0:	0080a025 	move	s4,a0
    54d4:	8f907b24 	lw	s0,31524(gp)
    54d8:	1200002d 	beqz	s0,5590 <OSTmrCreate+0xfc>
    54dc:	24050001 	li	a1,1
    54e0:	a2050025 	sb	a1,37(s0)
    54e4:	8fa50040 	lw	a1,64(sp)
    54e8:	97837b38 	lhu	v1,31544(gp)
    54ec:	97827b48 	lhu	v0,31560(gp)
    54f0:	ae050008 	sw	a1,8(s0)
    54f4:	8fa50044 	lw	a1,68(sp)
    54f8:	8e04000c 	lw	a0,12(s0)
    54fc:	2442ffff 	addiu	v0,v0,-1
    5500:	ae140018 	sw	s4,24(s0)
    5504:	ae12001c 	sw	s2,28(s0)
    5508:	a2150024 	sb	s5,36(s0)
    550c:	ae110004 	sw	s1,4(s0)
    5510:	24630001 	addiu	v1,v1,1
    5514:	ae00000c 	sw	zero,12(s0)
    5518:	ae000010 	sw	zero,16(s0)
    551c:	ae050020 	sw	a1,32(s0)
    5520:	a7827b48 	sh	v0,31560(gp)
    5524:	af847b24 	sw	a0,31524(gp)
    5528:	0c001b53 	jal	6d4c <OSSchedUnlock>
    552c:	a7837b38 	sh	v1,31544(gp)
    5530:	a2600000 	sb	zero,0(s3)
    5534:	8fbf002c 	lw	ra,44(sp)
    5538:	02001025 	move	v0,s0
    553c:	8fb50028 	lw	s5,40(sp)
    5540:	8fb40024 	lw	s4,36(sp)
    5544:	8fb30020 	lw	s3,32(sp)
    5548:	8fb2001c 	lw	s2,28(sp)
    554c:	8fb10018 	lw	s1,24(sp)
    5550:	8fb00014 	lw	s0,20(sp)
    5554:	03e00008 	jr	ra
    5558:	27bd0030 	addiu	sp,sp,48
    555c:	2402ff8b 	li	v0,-117
    5560:	a2620000 	sb	v0,0(s3)
    5564:	8fbf002c 	lw	ra,44(sp)
    5568:	00008025 	move	s0,zero
    556c:	02001025 	move	v0,s0
    5570:	8fb50028 	lw	s5,40(sp)
    5574:	8fb40024 	lw	s4,36(sp)
    5578:	8fb30020 	lw	s3,32(sp)
    557c:	8fb2001c 	lw	s2,28(sp)
    5580:	8fb10018 	lw	s1,24(sp)
    5584:	8fb00014 	lw	s0,20(sp)
    5588:	03e00008 	jr	ra
    558c:	27bd0030 	addiu	sp,sp,48
    5590:	0c001b53 	jal	6d4c <OSSchedUnlock>
    5594:	00000000 	nop
    5598:	2402ff86 	li	v0,-122
    559c:	a2620000 	sb	v0,0(s3)
    55a0:	8fbf002c 	lw	ra,44(sp)
    55a4:	02001025 	move	v0,s0
    55a8:	8fb50028 	lw	s5,40(sp)
    55ac:	8fb40024 	lw	s4,36(sp)
    55b0:	8fb30020 	lw	s3,32(sp)
    55b4:	8fb2001c 	lw	s2,28(sp)
    55b8:	8fb10018 	lw	s1,24(sp)
    55bc:	8fb00014 	lw	s0,20(sp)
    55c0:	03e00008 	jr	ra
    55c4:	27bd0030 	addiu	sp,sp,48

000055c8 <OSTmrDel>:
    55c8:	90830000 	lbu	v1,0(a0)
    55cc:	24020064 	li	v0,100
    55d0:	10620004 	beq	v1,v0,55e4 <OSTmrDel+0x1c>
    55d4:	2402ff89 	li	v0,-119
    55d8:	a0a20000 	sb	v0,0(a1)
    55dc:	03e00008 	jr	ra
    55e0:	00001025 	move	v0,zero
    55e4:	93827b74 	lbu	v0,31604(gp)
    55e8:	27bdffd8 	addiu	sp,sp,-40
    55ec:	afbf0024 	sw	ra,36(sp)
    55f0:	afb10020 	sw	s1,32(sp)
    55f4:	10400009 	beqz	v0,561c <OSTmrDel+0x54>
    55f8:	afb0001c 	sw	s0,28(sp)
    55fc:	2402ff8b 	li	v0,-117
    5600:	a0a20000 	sb	v0,0(a1)
    5604:	00001025 	move	v0,zero
    5608:	8fbf0024 	lw	ra,36(sp)
    560c:	8fb10020 	lw	s1,32(sp)
    5610:	8fb0001c 	lw	s0,28(sp)
    5614:	03e00008 	jr	ra
    5618:	27bd0028 	addiu	sp,sp,40
    561c:	00808025 	move	s0,a0
    5620:	0c00187c 	jal	61f0 <OSSchedLock>
    5624:	00a08825 	move	s1,a1
    5628:	92020025 	lbu	v0,37(s0)
    562c:	2c430003 	sltiu	v1,v0,3
    5630:	10600009 	beqz	v1,5658 <OSTmrDel+0x90>
    5634:	24030003 	li	v1,3
    5638:	1440000b 	bnez	v0,5668 <OSTmrDel+0xa0>
    563c:	00000000 	nop
    5640:	0c001b53 	jal	6d4c <OSSchedUnlock>
    5644:	afa20010 	sw	v0,16(sp)
    5648:	2403ff87 	li	v1,-121
    564c:	a2230000 	sb	v1,0(s1)
    5650:	1000ffed 	b	5608 <OSTmrDel+0x40>
    5654:	8fa20010 	lw	v0,16(sp)
    5658:	1443001a 	bne	v0,v1,56c4 <OSTmrDel+0xfc>
    565c:	00000000 	nop
    5660:	0c0014cd 	jal	5334 <OSTmr_Unlink>
    5664:	02002025 	move	a0,s0
    5668:	3c040000 	lui	a0,0x0
    566c:	24847a90 	addiu	a0,a0,31376
    5670:	97837b38 	lhu	v1,31544(gp)
    5674:	97827b48 	lhu	v0,31560(gp)
    5678:	ae040020 	sw	a0,32(s0)
    567c:	8f847b24 	lw	a0,31524(gp)
    5680:	24420001 	addiu	v0,v0,1
    5684:	2463ffff 	addiu	v1,v1,-1
    5688:	a2000025 	sb	zero,37(s0)
    568c:	a2000024 	sb	zero,36(s0)
    5690:	ae00001c 	sw	zero,28(s0)
    5694:	ae000014 	sw	zero,20(s0)
    5698:	ae000004 	sw	zero,4(s0)
    569c:	ae000008 	sw	zero,8(s0)
    56a0:	ae000010 	sw	zero,16(s0)
    56a4:	ae04000c 	sw	a0,12(s0)
    56a8:	a7827b48 	sh	v0,31560(gp)
    56ac:	af907b24 	sw	s0,31524(gp)
    56b0:	0c001b53 	jal	6d4c <OSSchedUnlock>
    56b4:	a7837b38 	sh	v1,31544(gp)
    56b8:	a2200000 	sb	zero,0(s1)
    56bc:	1000ffd2 	b	5608 <OSTmrDel+0x40>
    56c0:	24020001 	li	v0,1
    56c4:	0c001b53 	jal	6d4c <OSSchedUnlock>
    56c8:	00000000 	nop
    56cc:	2402ff8d 	li	v0,-115
    56d0:	a2220000 	sb	v0,0(s1)
    56d4:	1000ffcc 	b	5608 <OSTmrDel+0x40>
    56d8:	00001025 	move	v0,zero

000056dc <OSTmrNameGet>:
    56dc:	90830000 	lbu	v1,0(a0)
    56e0:	24020064 	li	v0,100
    56e4:	10620004 	beq	v1,v0,56f8 <OSTmrNameGet+0x1c>
    56e8:	2402ff89 	li	v0,-119
    56ec:	a0c20000 	sb	v0,0(a2)
    56f0:	03e00008 	jr	ra
    56f4:	00001025 	move	v0,zero
    56f8:	93827b74 	lbu	v0,31604(gp)
    56fc:	27bdffd8 	addiu	sp,sp,-40
    5700:	afbf0024 	sw	ra,36(sp)
    5704:	afb20020 	sw	s2,32(sp)
    5708:	afb1001c 	sw	s1,28(sp)
    570c:	1040000a 	beqz	v0,5738 <OSTmrNameGet+0x5c>
    5710:	afb00018 	sw	s0,24(sp)
    5714:	24020011 	li	v0,17
    5718:	a0c20000 	sb	v0,0(a2)
    571c:	00001025 	move	v0,zero
    5720:	8fbf0024 	lw	ra,36(sp)
    5724:	8fb20020 	lw	s2,32(sp)
    5728:	8fb1001c 	lw	s1,28(sp)
    572c:	8fb00018 	lw	s0,24(sp)
    5730:	03e00008 	jr	ra
    5734:	27bd0028 	addiu	sp,sp,40
    5738:	00808025 	move	s0,a0
    573c:	00c08825 	move	s1,a2
    5740:	0c00187c 	jal	61f0 <OSSchedLock>
    5744:	00a09025 	move	s2,a1
    5748:	92020025 	lbu	v0,37(s0)
    574c:	10400012 	beqz	v0,5798 <OSTmrNameGet+0xbc>
    5750:	00000000 	nop
    5754:	2c420004 	sltiu	v0,v0,4
    5758:	14400007 	bnez	v0,5778 <OSTmrNameGet+0x9c>
    575c:	00000000 	nop
    5760:	0c001b53 	jal	6d4c <OSSchedUnlock>
    5764:	00000000 	nop
    5768:	2402ff8d 	li	v0,-115
    576c:	a2220000 	sb	v0,0(s1)
    5770:	1000ffeb 	b	5720 <OSTmrNameGet+0x44>
    5774:	00001025 	move	v0,zero
    5778:	8e040020 	lw	a0,32(s0)
    577c:	0c001b75 	jal	6dd4 <OS_StrLen>
    5780:	ae440000 	sw	a0,0(s2)
    5784:	0c001b53 	jal	6d4c <OSSchedUnlock>
    5788:	00408025 	move	s0,v0
    578c:	a2200000 	sb	zero,0(s1)
    5790:	1000ffe3 	b	5720 <OSTmrNameGet+0x44>
    5794:	02001025 	move	v0,s0
    5798:	0c001b53 	jal	6d4c <OSSchedUnlock>
    579c:	afa20010 	sw	v0,16(sp)
    57a0:	2403ff87 	li	v1,-121
    57a4:	a2230000 	sb	v1,0(s1)
    57a8:	1000ffdd 	b	5720 <OSTmrNameGet+0x44>
    57ac:	8fa20010 	lw	v0,16(sp)

000057b0 <OSTmrRemainGet>:
    57b0:	90830000 	lbu	v1,0(a0)
    57b4:	24020064 	li	v0,100
    57b8:	10620004 	beq	v1,v0,57cc <OSTmrRemainGet+0x1c>
    57bc:	2402ff89 	li	v0,-119
    57c0:	a0a20000 	sb	v0,0(a1)
    57c4:	03e00008 	jr	ra
    57c8:	00001025 	move	v0,zero
    57cc:	93827b74 	lbu	v0,31604(gp)
    57d0:	27bdffe0 	addiu	sp,sp,-32
    57d4:	afbf001c 	sw	ra,28(sp)
    57d8:	afb20018 	sw	s2,24(sp)
    57dc:	afb10014 	sw	s1,20(sp)
    57e0:	1040000a 	beqz	v0,580c <OSTmrRemainGet+0x5c>
    57e4:	afb00010 	sw	s0,16(sp)
    57e8:	2402ff8b 	li	v0,-117
    57ec:	a0a20000 	sb	v0,0(a1)
    57f0:	00001025 	move	v0,zero
    57f4:	8fbf001c 	lw	ra,28(sp)
    57f8:	8fb20018 	lw	s2,24(sp)
    57fc:	8fb10014 	lw	s1,20(sp)
    5800:	8fb00010 	lw	s0,16(sp)
    5804:	03e00008 	jr	ra
    5808:	27bd0020 	addiu	sp,sp,32
    580c:	00808025 	move	s0,a0
    5810:	0c00187c 	jal	61f0 <OSSchedLock>
    5814:	00a09025 	move	s2,a1
    5818:	92020025 	lbu	v0,37(s0)
    581c:	24030001 	li	v1,1
    5820:	1043001f 	beq	v0,v1,58a0 <OSTmrRemainGet+0xf0>
    5824:	00000000 	nop
    5828:	10400017 	beqz	v0,5888 <OSTmrRemainGet+0xd8>
    582c:	24030002 	li	v1,2
    5830:	10430010 	beq	v0,v1,5874 <OSTmrRemainGet+0xc4>
    5834:	24030003 	li	v1,3
    5838:	14430008 	bne	v0,v1,585c <OSTmrRemainGet+0xac>
    583c:	00000000 	nop
    5840:	8e020014 	lw	v0,20(s0)
    5844:	8f907b7c 	lw	s0,31612(gp)
    5848:	0c001b53 	jal	6d4c <OSSchedUnlock>
    584c:	00508023 	subu	s0,v0,s0
    5850:	a2400000 	sb	zero,0(s2)
    5854:	1000ffe7 	b	57f4 <OSTmrRemainGet+0x44>
    5858:	02001025 	move	v0,s0
    585c:	0c001b53 	jal	6d4c <OSSchedUnlock>
    5860:	00000000 	nop
    5864:	2402ff8d 	li	v0,-115
    5868:	a2420000 	sb	v0,0(s2)
    586c:	1000ffe1 	b	57f4 <OSTmrRemainGet+0x44>
    5870:	00001025 	move	v0,zero
    5874:	0c001b53 	jal	6d4c <OSSchedUnlock>
    5878:	00000000 	nop
    587c:	a2400000 	sb	zero,0(s2)
    5880:	1000ffdc 	b	57f4 <OSTmrRemainGet+0x44>
    5884:	00001025 	move	v0,zero
    5888:	0c001b53 	jal	6d4c <OSSchedUnlock>
    588c:	00000000 	nop
    5890:	2402ff87 	li	v0,-121
    5894:	a2420000 	sb	v0,0(s2)
    5898:	1000ffd6 	b	57f4 <OSTmrRemainGet+0x44>
    589c:	00001025 	move	v0,zero
    58a0:	92030024 	lbu	v1,36(s0)
    58a4:	24020002 	li	v0,2
    58a8:	1462000a 	bne	v1,v0,58d4 <OSTmrRemainGet+0x124>
    58ac:	00000000 	nop
    58b0:	8e110018 	lw	s1,24(s0)
    58b4:	16200002 	bnez	s1,58c0 <OSTmrRemainGet+0x110>
    58b8:	00000000 	nop
    58bc:	8e11001c 	lw	s1,28(s0)
    58c0:	0c001b53 	jal	6d4c <OSSchedUnlock>
    58c4:	00000000 	nop
    58c8:	a2400000 	sb	zero,0(s2)
    58cc:	1000ffc9 	b	57f4 <OSTmrRemainGet+0x44>
    58d0:	02201025 	move	v0,s1
    58d4:	0c001b53 	jal	6d4c <OSSchedUnlock>
    58d8:	8e100018 	lw	s0,24(s0)
    58dc:	a2400000 	sb	zero,0(s2)
    58e0:	1000ffc4 	b	57f4 <OSTmrRemainGet+0x44>
    58e4:	02001025 	move	v0,s0

000058e8 <OSTmrStateGet>:
    58e8:	90830000 	lbu	v1,0(a0)
    58ec:	24020064 	li	v0,100
    58f0:	10620004 	beq	v1,v0,5904 <OSTmrStateGet+0x1c>
    58f4:	2402ff89 	li	v0,-119
    58f8:	a0a20000 	sb	v0,0(a1)
    58fc:	03e00008 	jr	ra
    5900:	00001025 	move	v0,zero
    5904:	93827b74 	lbu	v0,31604(gp)
    5908:	27bdffe0 	addiu	sp,sp,-32
    590c:	afbf001c 	sw	ra,28(sp)
    5910:	afb10018 	sw	s1,24(sp)
    5914:	10400009 	beqz	v0,593c <OSTmrStateGet+0x54>
    5918:	afb00014 	sw	s0,20(sp)
    591c:	8fbf001c 	lw	ra,28(sp)
    5920:	2402ff8b 	li	v0,-117
    5924:	8fb10018 	lw	s1,24(sp)
    5928:	8fb00014 	lw	s0,20(sp)
    592c:	a0a20000 	sb	v0,0(a1)
    5930:	00001025 	move	v0,zero
    5934:	03e00008 	jr	ra
    5938:	27bd0020 	addiu	sp,sp,32
    593c:	00808025 	move	s0,a0
    5940:	0c00187c 	jal	61f0 <OSSchedLock>
    5944:	00a08825 	move	s1,a1
    5948:	92100025 	lbu	s0,37(s0)
    594c:	2e020004 	sltiu	v0,s0,4
    5950:	1040000a 	beqz	v0,597c <OSTmrStateGet+0x94>
    5954:	2402ff8d 	li	v0,-115
    5958:	a2200000 	sb	zero,0(s1)
    595c:	0c001b53 	jal	6d4c <OSSchedUnlock>
    5960:	00000000 	nop
    5964:	8fbf001c 	lw	ra,28(sp)
    5968:	02001025 	move	v0,s0
    596c:	8fb10018 	lw	s1,24(sp)
    5970:	8fb00014 	lw	s0,20(sp)
    5974:	03e00008 	jr	ra
    5978:	27bd0020 	addiu	sp,sp,32
    597c:	1000fff7 	b	595c <OSTmrStateGet+0x74>
    5980:	a2220000 	sb	v0,0(s1)

00005984 <OSTmrStart>:
    5984:	90830000 	lbu	v1,0(a0)
    5988:	24020064 	li	v0,100
    598c:	10620004 	beq	v1,v0,59a0 <OSTmrStart+0x1c>
    5990:	2402ff89 	li	v0,-119
    5994:	a0a20000 	sb	v0,0(a1)
    5998:	03e00008 	jr	ra
    599c:	00001025 	move	v0,zero
    59a0:	93827b74 	lbu	v0,31604(gp)
    59a4:	27bdffd8 	addiu	sp,sp,-40
    59a8:	afbf0024 	sw	ra,36(sp)
    59ac:	afb10020 	sw	s1,32(sp)
    59b0:	10400009 	beqz	v0,59d8 <OSTmrStart+0x54>
    59b4:	afb0001c 	sw	s0,28(sp)
    59b8:	2402ff8b 	li	v0,-117
    59bc:	a0a20000 	sb	v0,0(a1)
    59c0:	00001025 	move	v0,zero
    59c4:	8fbf0024 	lw	ra,36(sp)
    59c8:	8fb10020 	lw	s1,32(sp)
    59cc:	8fb0001c 	lw	s0,28(sp)
    59d0:	03e00008 	jr	ra
    59d4:	27bd0028 	addiu	sp,sp,40
    59d8:	00808025 	move	s0,a0
    59dc:	0c00187c 	jal	61f0 <OSSchedLock>
    59e0:	00a08825 	move	s1,a1
    59e4:	92020025 	lbu	v0,37(s0)
    59e8:	2c430003 	sltiu	v1,v0,3
    59ec:	10600009 	beqz	v1,5a14 <OSTmrStart+0x90>
    59f0:	24030003 	li	v1,3
    59f4:	1440000c 	bnez	v0,5a28 <OSTmrStart+0xa4>
    59f8:	00002825 	move	a1,zero
    59fc:	0c001b53 	jal	6d4c <OSSchedUnlock>
    5a00:	afa20010 	sw	v0,16(sp)
    5a04:	2403ff87 	li	v1,-121
    5a08:	a2230000 	sb	v1,0(s1)
    5a0c:	1000ffed 	b	59c4 <OSTmrStart+0x40>
    5a10:	8fa20010 	lw	v0,16(sp)
    5a14:	1443000b 	bne	v0,v1,5a44 <OSTmrStart+0xc0>
    5a18:	00000000 	nop
    5a1c:	0c0014cd 	jal	5334 <OSTmr_Unlink>
    5a20:	02002025 	move	a0,s0
    5a24:	00002825 	move	a1,zero
    5a28:	0c0014a2 	jal	5288 <OSTmr_Link>
    5a2c:	02002025 	move	a0,s0
    5a30:	0c001b53 	jal	6d4c <OSSchedUnlock>
    5a34:	00000000 	nop
    5a38:	a2200000 	sb	zero,0(s1)
    5a3c:	1000ffe1 	b	59c4 <OSTmrStart+0x40>
    5a40:	24020001 	li	v0,1
    5a44:	0c001b53 	jal	6d4c <OSSchedUnlock>
    5a48:	00000000 	nop
    5a4c:	2402ff8d 	li	v0,-115
    5a50:	a2220000 	sb	v0,0(s1)
    5a54:	1000ffdb 	b	59c4 <OSTmrStart+0x40>
    5a58:	00001025 	move	v0,zero

00005a5c <OSTmrStop>:
    5a5c:	90830000 	lbu	v1,0(a0)
    5a60:	24020064 	li	v0,100
    5a64:	10620004 	beq	v1,v0,5a78 <OSTmrStop+0x1c>
    5a68:	2402ff89 	li	v0,-119
    5a6c:	a0e20000 	sb	v0,0(a3)
    5a70:	03e00008 	jr	ra
    5a74:	00001025 	move	v0,zero
    5a78:	93827b74 	lbu	v0,31604(gp)
    5a7c:	27bdffd0 	addiu	sp,sp,-48
    5a80:	afbf002c 	sw	ra,44(sp)
    5a84:	afb30028 	sw	s3,40(sp)
    5a88:	afb20024 	sw	s2,36(sp)
    5a8c:	afb10020 	sw	s1,32(sp)
    5a90:	1040000b 	beqz	v0,5ac0 <OSTmrStop+0x64>
    5a94:	afb0001c 	sw	s0,28(sp)
    5a98:	2402ff8b 	li	v0,-117
    5a9c:	a0e20000 	sb	v0,0(a3)
    5aa0:	00001025 	move	v0,zero
    5aa4:	8fbf002c 	lw	ra,44(sp)
    5aa8:	8fb30028 	lw	s3,40(sp)
    5aac:	8fb20024 	lw	s2,36(sp)
    5ab0:	8fb10020 	lw	s1,32(sp)
    5ab4:	8fb0001c 	lw	s0,28(sp)
    5ab8:	03e00008 	jr	ra
    5abc:	27bd0030 	addiu	sp,sp,48
    5ac0:	00808025 	move	s0,a0
    5ac4:	30b300ff 	andi	s3,a1,0xff
    5ac8:	00e08825 	move	s1,a3
    5acc:	0c00187c 	jal	61f0 <OSSchedLock>
    5ad0:	00c09025 	move	s2,a2
    5ad4:	92020025 	lbu	v0,37(s0)
    5ad8:	2c430003 	sltiu	v1,v0,3
    5adc:	10600009 	beqz	v1,5b04 <OSTmrStop+0xa8>
    5ae0:	24030003 	li	v1,3
    5ae4:	1440001f 	bnez	v0,5b64 <OSTmrStop+0x108>
    5ae8:	00000000 	nop
    5aec:	0c001b53 	jal	6d4c <OSSchedUnlock>
    5af0:	afa20010 	sw	v0,16(sp)
    5af4:	2403ff87 	li	v1,-121
    5af8:	a2230000 	sb	v1,0(s1)
    5afc:	1000ffe9 	b	5aa4 <OSTmrStop+0x48>
    5b00:	8fa20010 	lw	v0,16(sp)
    5b04:	14430011 	bne	v0,v1,5b4c <OSTmrStop+0xf0>
    5b08:	afa20010 	sw	v0,16(sp)
    5b0c:	0c0014cd 	jal	5334 <OSTmr_Unlink>
    5b10:	02002025 	move	a0,s0
    5b14:	8fa20010 	lw	v0,16(sp)
    5b18:	12620020 	beq	s3,v0,5b9c <OSTmrStop+0x140>
    5b1c:	a2200000 	sb	zero,0(s1)
    5b20:	24020004 	li	v0,4
    5b24:	12620015 	beq	s3,v0,5b7c <OSTmrStop+0x120>
    5b28:	00000000 	nop
    5b2c:	12600003 	beqz	s3,5b3c <OSTmrStop+0xe0>
    5b30:	00000000 	nop
    5b34:	2402ff84 	li	v0,-124
    5b38:	a2220000 	sb	v0,0(s1)
    5b3c:	0c001b53 	jal	6d4c <OSSchedUnlock>
    5b40:	00000000 	nop
    5b44:	1000ffd7 	b	5aa4 <OSTmrStop+0x48>
    5b48:	24020001 	li	v0,1
    5b4c:	0c001b53 	jal	6d4c <OSSchedUnlock>
    5b50:	00000000 	nop
    5b54:	2402ff8d 	li	v0,-115
    5b58:	a2220000 	sb	v0,0(s1)
    5b5c:	1000ffd1 	b	5aa4 <OSTmrStop+0x48>
    5b60:	00001025 	move	v0,zero
    5b64:	0c001b53 	jal	6d4c <OSSchedUnlock>
    5b68:	00000000 	nop
    5b6c:	2402ff8e 	li	v0,-114
    5b70:	a2220000 	sb	v0,0(s1)
    5b74:	1000ffcb 	b	5aa4 <OSTmrStop+0x48>
    5b78:	24020001 	li	v0,1
    5b7c:	8e020004 	lw	v0,4(s0)
    5b80:	1040000e 	beqz	v0,5bbc <OSTmrStop+0x160>
    5b84:	00000000 	nop
    5b88:	02402825 	move	a1,s2
    5b8c:	0040f809 	jalr	v0
    5b90:	02002025 	move	a0,s0
    5b94:	1000ffe9 	b	5b3c <OSTmrStop+0xe0>
    5b98:	00000000 	nop
    5b9c:	8e020004 	lw	v0,4(s0)
    5ba0:	10400006 	beqz	v0,5bbc <OSTmrStop+0x160>
    5ba4:	00000000 	nop
    5ba8:	8e050008 	lw	a1,8(s0)
    5bac:	0040f809 	jalr	v0
    5bb0:	02002025 	move	a0,s0
    5bb4:	1000ffe1 	b	5b3c <OSTmrStop+0xe0>
    5bb8:	00000000 	nop
    5bbc:	2402ff8f 	li	v0,-113
    5bc0:	1000ffde 	b	5b3c <OSTmrStop+0xe0>
    5bc4:	a2220000 	sb	v0,0(s1)

00005bc8 <OSTmrSignal>:
    5bc8:	08000f16 	j	3c58 <OSSemPost>
    5bcc:	8f847b2c 	lw	a0,31532(gp)

00005bd0 <OSTmr_Init>:
    5bd0:	27bdffc8 	addiu	sp,sp,-56
    5bd4:	afb00030 	sw	s0,48(sp)
    5bd8:	3c100001 	lui	s0,0x1
    5bdc:	24050280 	li	a1,640
    5be0:	afbf0034 	sw	ra,52(sp)
    5be4:	0c0019e8 	jal	67a0 <OS_MemClr>
    5be8:	26048898 	addiu	a0,s0,-30568
    5bec:	3c040001 	lui	a0,0x1
    5bf0:	24050040 	li	a1,64
    5bf4:	0c0019e8 	jal	67a0 <OS_MemClr>
    5bf8:	24848808 	addiu	a0,a0,-30712
    5bfc:	3c020001 	lui	v0,0x1
    5c00:	3c040001 	lui	a0,0x1
    5c04:	3c030000 	lui	v1,0x0
    5c08:	244288c0 	addiu	v0,v0,-30528
    5c0c:	24848b18 	addiu	a0,a0,-29928
    5c10:	24637a90 	addiu	v1,v1,31376
    5c14:	24050064 	li	a1,100
    5c18:	a045ffd8 	sb	a1,-40(v0)
    5c1c:	a040fffd 	sb	zero,-3(v0)
    5c20:	ac42ffe4 	sw	v0,-28(v0)
    5c24:	ac43fff8 	sw	v1,-8(v0)
    5c28:	24420028 	addiu	v0,v0,40
    5c2c:	1444fffa 	bne	v0,a0,5c18 <OSTmr_Init+0x48>
    5c30:	00000000 	nop
    5c34:	26028898 	addiu	v0,s0,-30568
    5c38:	24050064 	li	a1,100
    5c3c:	a0450258 	sb	a1,600(v0)
    5c40:	24040001 	li	a0,1
    5c44:	ac430278 	sw	v1,632(v0)
    5c48:	a040027d 	sb	zero,637(v0)
    5c4c:	24030010 	li	v1,16
    5c50:	ac400264 	sw	zero,612(v0)
    5c54:	a7837b48 	sh	v1,31560(gp)
    5c58:	af827b24 	sw	v0,31524(gp)
    5c5c:	af807b7c 	sw	zero,31612(gp)
    5c60:	0c000df0 	jal	37c0 <OSSemCreate>
    5c64:	a7807b38 	sh	zero,31544(gp)
    5c68:	00002025 	move	a0,zero
    5c6c:	0c000df0 	jal	37c0 <OSSemCreate>
    5c70:	af827b84 	sw	v0,31620(gp)
    5c74:	8f847b84 	lw	a0,31620(gp)
    5c78:	3c050000 	lui	a1,0x0
    5c7c:	27a60029 	addiu	a2,sp,41
    5c80:	24a57a94 	addiu	a1,a1,31380
    5c84:	0c00178c 	jal	5e30 <OSEventNameSet>
    5c88:	af827b2c 	sw	v0,31532(gp)
    5c8c:	8f847b2c 	lw	a0,31532(gp)
    5c90:	3c050000 	lui	a1,0x0
    5c94:	27a60029 	addiu	a2,sp,41
    5c98:	0c00178c 	jal	5e30 <OSEventNameSet>
    5c9c:	24a57aa8 	addiu	a1,a1,31400
    5ca0:	24020003 	li	v0,3
    5ca4:	afa20020 	sw	v0,32(sp)
    5ca8:	24020080 	li	v0,128
    5cac:	afa20018 	sw	v0,24(sp)
    5cb0:	3c020001 	lui	v0,0x1
    5cb4:	24428df0 	addiu	v0,v0,-29200
    5cb8:	afa20014 	sw	v0,20(sp)
    5cbc:	3c060001 	lui	a2,0x1
    5cc0:	3402fffd 	li	v0,0xfffd
    5cc4:	3c040000 	lui	a0,0x0
    5cc8:	24c68fec 	addiu	a2,a2,-28692
    5ccc:	00002825 	move	a1,zero
    5cd0:	248453c4 	addiu	a0,a0,21444
    5cd4:	afa0001c 	sw	zero,28(sp)
    5cd8:	afa20010 	sw	v0,16(sp)
    5cdc:	0c001084 	jal	4210 <OSTaskCreateExt>
    5ce0:	2407003d 	li	a3,61
    5ce4:	3c050000 	lui	a1,0x0
    5ce8:	27a60028 	addiu	a2,sp,40
    5cec:	24a57abc 	addiu	a1,a1,31420
    5cf0:	0c0011fb 	jal	47ec <OSTaskNameSet>
    5cf4:	2404003d 	li	a0,61
    5cf8:	8fbf0034 	lw	ra,52(sp)
    5cfc:	8fb00030 	lw	s0,48(sp)
    5d00:	03e00008 	jr	ra
    5d04:	27bd0038 	addiu	sp,sp,56

00005d08 <OSDebugInit>:
    5d08:	03e00008 	jr	ra
    5d0c:	00000000 	nop

00005d10 <OS_TaskIdle>:
    5d10:	27bdffe0 	addiu	sp,sp,-32
    5d14:	afbf001c 	sw	ra,28(sp)
    5d18:	afa00010 	sw	zero,16(sp)
    5d1c:	0c001d3c 	jal	74f0 <OS_CPU_SR_Save>
    5d20:	00000000 	nop
    5d24:	afa20010 	sw	v0,16(sp)
    5d28:	8f827b34 	lw	v0,31540(gp)
    5d2c:	24420001 	addiu	v0,v0,1
    5d30:	af827b34 	sw	v0,31540(gp)
    5d34:	8fa40010 	lw	a0,16(sp)
    5d38:	0c001d43 	jal	750c <OS_CPU_SR_Restore>
    5d3c:	00000000 	nop
    5d40:	0c001c52 	jal	7148 <OSTaskIdleHook>
    5d44:	00000000 	nop
    5d48:	1000fff4 	b	5d1c <OS_TaskIdle+0xc>
    5d4c:	00000000 	nop

00005d50 <OSEventNameGet>:
    5d50:	93827b74 	lbu	v0,31604(gp)
    5d54:	27bdffd8 	addiu	sp,sp,-40
    5d58:	afbf0024 	sw	ra,36(sp)
    5d5c:	afb20020 	sw	s2,32(sp)
    5d60:	afb1001c 	sw	s1,28(sp)
    5d64:	afb00018 	sw	s0,24(sp)
    5d68:	afa00010 	sw	zero,16(sp)
    5d6c:	14400027 	bnez	v0,5e0c <OSEventNameGet+0xbc>
    5d70:	24070003 	li	a3,3
    5d74:	90830000 	lbu	v1,0(a0)
    5d78:	2463ffff 	addiu	v1,v1,-1
    5d7c:	00e3182b 	sltu	v1,a3,v1
    5d80:	10600008 	beqz	v1,5da4 <OSEventNameGet+0x54>
    5d84:	8fbf0024 	lw	ra,36(sp)
    5d88:	24030001 	li	v1,1
    5d8c:	8fb20020 	lw	s2,32(sp)
    5d90:	8fb1001c 	lw	s1,28(sp)
    5d94:	8fb00018 	lw	s0,24(sp)
    5d98:	a0c30000 	sb	v1,0(a2)
    5d9c:	03e00008 	jr	ra
    5da0:	27bd0028 	addiu	sp,sp,40
    5da4:	00808025 	move	s0,a0
    5da8:	00a09025 	move	s2,a1
    5dac:	0c001d3c 	jal	74f0 <OS_CPU_SR_Save>
    5db0:	00c08825 	move	s1,a2
    5db4:	8e030014 	lw	v1,20(s0)
    5db8:	afa20010 	sw	v0,16(sp)
    5dbc:	ae430000 	sw	v1,0(s2)
    5dc0:	90620000 	lbu	v0,0(v1)
    5dc4:	10400006 	beqz	v0,5de0 <OSEventNameGet+0x90>
    5dc8:	00008025 	move	s0,zero
    5dcc:	24630001 	addiu	v1,v1,1
    5dd0:	90620000 	lbu	v0,0(v1)
    5dd4:	26100001 	addiu	s0,s0,1
    5dd8:	1440fffc 	bnez	v0,5dcc <OSEventNameGet+0x7c>
    5ddc:	321000ff 	andi	s0,s0,0xff
    5de0:	8fa40010 	lw	a0,16(sp)
    5de4:	0c001d43 	jal	750c <OS_CPU_SR_Restore>
    5de8:	00000000 	nop
    5dec:	a2200000 	sb	zero,0(s1)
    5df0:	8fbf0024 	lw	ra,36(sp)
    5df4:	02001025 	move	v0,s0
    5df8:	8fb20020 	lw	s2,32(sp)
    5dfc:	8fb1001c 	lw	s1,28(sp)
    5e00:	8fb00018 	lw	s0,24(sp)
    5e04:	03e00008 	jr	ra
    5e08:	27bd0028 	addiu	sp,sp,40
    5e0c:	8fbf0024 	lw	ra,36(sp)
    5e10:	24020011 	li	v0,17
    5e14:	8fb20020 	lw	s2,32(sp)
    5e18:	8fb1001c 	lw	s1,28(sp)
    5e1c:	8fb00018 	lw	s0,24(sp)
    5e20:	a0c20000 	sb	v0,0(a2)
    5e24:	00001025 	move	v0,zero
    5e28:	03e00008 	jr	ra
    5e2c:	27bd0028 	addiu	sp,sp,40

00005e30 <OSEventNameSet>:
    5e30:	93827b74 	lbu	v0,31604(gp)
    5e34:	27bdffd8 	addiu	sp,sp,-40
    5e38:	afbf0024 	sw	ra,36(sp)
    5e3c:	afb20020 	sw	s2,32(sp)
    5e40:	afb1001c 	sw	s1,28(sp)
    5e44:	afb00018 	sw	s0,24(sp)
    5e48:	afa00010 	sw	zero,16(sp)
    5e4c:	1440001c 	bnez	v0,5ec0 <OSEventNameSet+0x90>
    5e50:	24030003 	li	v1,3
    5e54:	90820000 	lbu	v0,0(a0)
    5e58:	2442ffff 	addiu	v0,v0,-1
    5e5c:	0062102b 	sltu	v0,v1,v0
    5e60:	10400008 	beqz	v0,5e84 <OSEventNameSet+0x54>
    5e64:	8fbf0024 	lw	ra,36(sp)
    5e68:	24020001 	li	v0,1
    5e6c:	8fb20020 	lw	s2,32(sp)
    5e70:	8fb1001c 	lw	s1,28(sp)
    5e74:	8fb00018 	lw	s0,24(sp)
    5e78:	a0c20000 	sb	v0,0(a2)
    5e7c:	03e00008 	jr	ra
    5e80:	27bd0028 	addiu	sp,sp,40
    5e84:	00c08025 	move	s0,a2
    5e88:	00a09025 	move	s2,a1
    5e8c:	0c001d3c 	jal	74f0 <OS_CPU_SR_Save>
    5e90:	00808825 	move	s1,a0
    5e94:	afa20010 	sw	v0,16(sp)
    5e98:	8fa40010 	lw	a0,16(sp)
    5e9c:	0c001d43 	jal	750c <OS_CPU_SR_Restore>
    5ea0:	ae320014 	sw	s2,20(s1)
    5ea4:	a2000000 	sb	zero,0(s0)
    5ea8:	8fbf0024 	lw	ra,36(sp)
    5eac:	8fb20020 	lw	s2,32(sp)
    5eb0:	8fb1001c 	lw	s1,28(sp)
    5eb4:	8fb00018 	lw	s0,24(sp)
    5eb8:	03e00008 	jr	ra
    5ebc:	27bd0028 	addiu	sp,sp,40
    5ec0:	8fbf0024 	lw	ra,36(sp)
    5ec4:	24020012 	li	v0,18
    5ec8:	8fb20020 	lw	s2,32(sp)
    5ecc:	8fb1001c 	lw	s1,28(sp)
    5ed0:	8fb00018 	lw	s0,24(sp)
    5ed4:	a0c20000 	sb	v0,0(a2)
    5ed8:	03e00008 	jr	ra
    5edc:	27bd0028 	addiu	sp,sp,40

00005ee0 <OSInit>:
    5ee0:	27bdffc0 	addiu	sp,sp,-64
    5ee4:	afbf003c 	sw	ra,60(sp)
    5ee8:	afb10038 	sw	s1,56(sp)
    5eec:	0c001c48 	jal	7120 <OSInitHookBegin>
    5ef0:	afb00034 	sw	s0,52(sp)
    5ef4:	27827b68 	addiu	v0,gp,31592
    5ef8:	af807b80 	sw	zero,31616(gp)
    5efc:	a3807b74 	sb	zero,31604(gp)
    5f00:	a3807b28 	sb	zero,31528(gp)
    5f04:	a3807b55 	sb	zero,31573(gp)
    5f08:	a3807b30 	sb	zero,31536(gp)
    5f0c:	af807b44 	sw	zero,31556(gp)
    5f10:	af807b34 	sw	zero,31540(gp)
    5f14:	af807b90 	sw	zero,31632(gp)
    5f18:	af807b4c 	sw	zero,31564(gp)
    5f1c:	a3807b8c 	sb	zero,31628(gp)
    5f20:	a3807b64 	sb	zero,31588(gp)
    5f24:	24430008 	addiu	v1,v0,8
    5f28:	a0400000 	sb	zero,0(v0)
    5f2c:	24420001 	addiu	v0,v0,1
    5f30:	1443fffd 	bne	v0,v1,5f28 <OSInit+0x48>
    5f34:	3c060001 	lui	a2,0x1
    5f38:	24c692e0 	addiu	a2,a2,-27936
    5f3c:	3c030001 	lui	v1,0x1
    5f40:	a3807b3b 	sb	zero,31547(gp)
    5f44:	a3807b3a 	sb	zero,31546(gp)
    5f48:	af807b5c 	sw	zero,31580(gp)
    5f4c:	af807b78 	sw	zero,31608(gp)
    5f50:	00c01025 	move	v0,a2
    5f54:	24639a70 	addiu	v1,v1,-26000
    5f58:	24420001 	addiu	v0,v0,1
    5f5c:	1443fffe 	bne	v0,v1,5f58 <OSInit+0x78>
    5f60:	a040ffff 	sb	zero,-1(v0)
    5f64:	3c020001 	lui	v0,0x1
    5f68:	3c040001 	lui	a0,0x1
    5f6c:	24429a70 	addiu	v0,v0,-26000
    5f70:	24849b70 	addiu	a0,a0,-25744
    5f74:	24420001 	addiu	v0,v0,1
    5f78:	1444fffe 	bne	v0,a0,5f74 <OSInit+0x94>
    5f7c:	a040ffff 	sb	zero,-1(v0)
    5f80:	3c020001 	lui	v0,0x1
    5f84:	3c040000 	lui	a0,0x0
    5f88:	24429338 	addiu	v0,v0,-27848
    5f8c:	24847a90 	addiu	a0,a0,31376
    5f90:	ac42ffbc 	sw	v0,-68(v0)
    5f94:	ac44fff8 	sw	a0,-8(v0)
    5f98:	24420058 	addiu	v0,v0,88
    5f9c:	1462fffc 	bne	v1,v0,5f90 <OSInit+0xb0>
    5fa0:	3c050001 	lui	a1,0x1
    5fa4:	24a591f0 	addiu	a1,a1,-28176
    5fa8:	3c030001 	lui	v1,0x1
    5fac:	acc0074c 	sw	zero,1868(a2)
    5fb0:	acc40788 	sw	a0,1928(a2)
    5fb4:	af807b3c 	sw	zero,31548(gp)
    5fb8:	af867b50 	sw	a2,31568(gp)
    5fbc:	00a01025 	move	v0,a1
    5fc0:	246392e0 	addiu	v1,v1,-27936
    5fc4:	24420001 	addiu	v0,v0,1
    5fc8:	1443fffe 	bne	v0,v1,5fc4 <OSInit+0xe4>
    5fcc:	a040ffff 	sb	zero,-1(v0)
    5fd0:	3c030001 	lui	v1,0x1
    5fd4:	24639208 	addiu	v1,v1,-28152
    5fd8:	a060ffe8 	sb	zero,-24(v1)
    5fdc:	ac63ffec 	sw	v1,-20(v1)
    5fe0:	ac64fffc 	sw	a0,-4(v1)
    5fe4:	24630018 	addiu	v1,v1,24
    5fe8:	1443fffb 	bne	v0,v1,5fd8 <OSInit+0xf8>
    5fec:	00000000 	nop
    5ff0:	aca400ec 	sw	a0,236(a1)
    5ff4:	a0a000d8 	sb	zero,216(a1)
    5ff8:	aca000dc 	sw	zero,220(a1)
    5ffc:	0c00054b 	jal	152c <OS_FlagInit>
    6000:	af857b70 	sw	a1,31600(gp)
    6004:	0c000854 	jal	2150 <OS_MemInit>
    6008:	24110003 	li	s1,3
    600c:	0c000dbb 	jal	36ec <OS_QInit>
    6010:	24100080 	li	s0,128
    6014:	3c020001 	lui	v0,0x1
    6018:	24428ff0 	addiu	v0,v0,-28688
    601c:	afa20014 	sw	v0,20(sp)
    6020:	3c060001 	lui	a2,0x1
    6024:	3402ffff 	li	v0,0xffff
    6028:	3c040000 	lui	a0,0x0
    602c:	afb10020 	sw	s1,32(sp)
    6030:	afb00018 	sw	s0,24(sp)
    6034:	2407003f 	li	a3,63
    6038:	afa20010 	sw	v0,16(sp)
    603c:	24c691ec 	addiu	a2,a2,-28180
    6040:	00002825 	move	a1,zero
    6044:	24845d10 	addiu	a0,a0,23824
    6048:	0c001084 	jal	4210 <OSTaskCreateExt>
    604c:	afa0001c 	sw	zero,28(sp)
    6050:	3c050000 	lui	a1,0x0
    6054:	27a60028 	addiu	a2,sp,40
    6058:	24a57acc 	addiu	a1,a1,31436
    605c:	0c0011fb 	jal	47ec <OSTaskNameSet>
    6060:	2404003f 	li	a0,63
    6064:	3c020001 	lui	v0,0x1
    6068:	24428b90 	addiu	v0,v0,-29808
    606c:	afa20014 	sw	v0,20(sp)
    6070:	3c040000 	lui	a0,0x0
    6074:	3402fffe 	li	v0,0xfffe
    6078:	3c060001 	lui	a2,0x1
    607c:	2407003e 	li	a3,62
    6080:	afb10020 	sw	s1,32(sp)
    6084:	afb00018 	sw	s0,24(sp)
    6088:	afa20010 	sw	v0,16(sp)
    608c:	00002825 	move	a1,zero
    6090:	24846e9c 	addiu	a0,a0,28316
    6094:	afa0001c 	sw	zero,28(sp)
    6098:	0c001084 	jal	4210 <OSTaskCreateExt>
    609c:	24c68d8c 	addiu	a2,a2,-29300
    60a0:	3c050000 	lui	a1,0x0
    60a4:	27a60028 	addiu	a2,sp,40
    60a8:	24a57adc 	addiu	a1,a1,31452
    60ac:	0c0011fb 	jal	47ec <OSTaskNameSet>
    60b0:	2404003e 	li	a0,62
    60b4:	0c0016f4 	jal	5bd0 <OSTmr_Init>
    60b8:	00000000 	nop
    60bc:	0c001c4a 	jal	7128 <OSInitHookEnd>
    60c0:	00000000 	nop
    60c4:	0c001742 	jal	5d08 <OSDebugInit>
    60c8:	00000000 	nop
    60cc:	8fbf003c 	lw	ra,60(sp)
    60d0:	8fb10038 	lw	s1,56(sp)
    60d4:	8fb00034 	lw	s0,52(sp)
    60d8:	03e00008 	jr	ra
    60dc:	27bd0040 	addiu	sp,sp,64

000060e0 <OSIntEnter>:
    60e0:	93837b30 	lbu	v1,31536(gp)
    60e4:	24020001 	li	v0,1
    60e8:	10620003 	beq	v1,v0,60f8 <OSIntEnter+0x18>
    60ec:	93827b74 	lbu	v0,31604(gp)
    60f0:	03e00008 	jr	ra
    60f4:	00000000 	nop
    60f8:	240300ff 	li	v1,255
    60fc:	1043fffc 	beq	v0,v1,60f0 <OSIntEnter+0x10>
    6100:	24420001 	addiu	v0,v0,1
    6104:	03e00008 	jr	ra
    6108:	a3827b74 	sb	v0,31604(gp)

0000610c <OSIntExit>:
    610c:	93837b30 	lbu	v1,31536(gp)
    6110:	27bdffe0 	addiu	sp,sp,-32
    6114:	24020001 	li	v0,1
    6118:	afbf001c 	sw	ra,28(sp)
    611c:	afa00010 	sw	zero,16(sp)
    6120:	10620003 	beq	v1,v0,6130 <OSIntExit+0x24>
    6124:	8fbf001c 	lw	ra,28(sp)
    6128:	03e00008 	jr	ra
    612c:	27bd0020 	addiu	sp,sp,32
    6130:	0c001d3c 	jal	74f0 <OS_CPU_SR_Save>
    6134:	00000000 	nop
    6138:	93837b74 	lbu	v1,31604(gp)
    613c:	afa20010 	sw	v0,16(sp)
    6140:	14600026 	bnez	v1,61dc <OSIntExit+0xd0>
    6144:	2463ffff 	addiu	v1,v1,-1
    6148:	93827b28 	lbu	v0,31528(gp)
    614c:	1440001d 	bnez	v0,61c4 <OSIntExit+0xb8>
    6150:	93827b64 	lbu	v0,31588(gp)
    6154:	3c030000 	lui	v1,0x0
    6158:	24637958 	addiu	v1,v1,31064
    615c:	00431021 	addu	v0,v0,v1
    6160:	90420000 	lbu	v0,0(v0)
    6164:	27847b68 	addiu	a0,gp,31592
    6168:	00822021 	addu	a0,a0,v0
    616c:	90840000 	lbu	a0,0(a0)
    6170:	000210c0 	sll	v0,v0,0x3
    6174:	00831821 	addu	v1,a0,v1
    6178:	90630000 	lbu	v1,0(v1)
    617c:	00431021 	addu	v0,v0,v1
    6180:	304200ff 	andi	v0,v0,0xff
    6184:	3c030001 	lui	v1,0x1
    6188:	00022080 	sll	a0,v0,0x2
    618c:	24639a70 	addiu	v1,v1,-26000
    6190:	00831821 	addu	v1,a0,v1
    6194:	8c630000 	lw	v1,0(v1)
    6198:	93847b3b 	lbu	a0,31547(gp)
    619c:	a3827b3a 	sb	v0,31546(gp)
    61a0:	10820008 	beq	a0,v0,61c4 <OSIntExit+0xb8>
    61a4:	af837b5c 	sw	v1,31580(gp)
    61a8:	8c64003c 	lw	a0,60(v1)
    61ac:	8f827b44 	lw	v0,31556(gp)
    61b0:	24840001 	addiu	a0,a0,1
    61b4:	24420001 	addiu	v0,v0,1
    61b8:	ac64003c 	sw	a0,60(v1)
    61bc:	0c001d03 	jal	740c <OSIntCtxSw>
    61c0:	af827b44 	sw	v0,31556(gp)
    61c4:	8fa40010 	lw	a0,16(sp)
    61c8:	0c001d43 	jal	750c <OS_CPU_SR_Restore>
    61cc:	00000000 	nop
    61d0:	8fbf001c 	lw	ra,28(sp)
    61d4:	03e00008 	jr	ra
    61d8:	27bd0020 	addiu	sp,sp,32
    61dc:	306300ff 	andi	v1,v1,0xff
    61e0:	1460fff8 	bnez	v1,61c4 <OSIntExit+0xb8>
    61e4:	a3837b74 	sb	v1,31604(gp)
    61e8:	1000ffd8 	b	614c <OSIntExit+0x40>
    61ec:	93827b28 	lbu	v0,31528(gp)

000061f0 <OSSchedLock>:
    61f0:	93837b30 	lbu	v1,31536(gp)
    61f4:	27bdffe0 	addiu	sp,sp,-32
    61f8:	24020001 	li	v0,1
    61fc:	afbf001c 	sw	ra,28(sp)
    6200:	afa00010 	sw	zero,16(sp)
    6204:	10620003 	beq	v1,v0,6214 <OSSchedLock+0x24>
    6208:	8fbf001c 	lw	ra,28(sp)
    620c:	03e00008 	jr	ra
    6210:	27bd0020 	addiu	sp,sp,32
    6214:	0c001d3c 	jal	74f0 <OS_CPU_SR_Save>
    6218:	00000000 	nop
    621c:	93837b74 	lbu	v1,31604(gp)
    6220:	afa20010 	sw	v0,16(sp)
    6224:	14600005 	bnez	v1,623c <OSSchedLock+0x4c>
    6228:	93827b28 	lbu	v0,31528(gp)
    622c:	240300ff 	li	v1,255
    6230:	10430002 	beq	v0,v1,623c <OSSchedLock+0x4c>
    6234:	24420001 	addiu	v0,v0,1
    6238:	a3827b28 	sb	v0,31528(gp)
    623c:	8fa40010 	lw	a0,16(sp)
    6240:	0c001d43 	jal	750c <OS_CPU_SR_Restore>
    6244:	00000000 	nop
    6248:	8fbf001c 	lw	ra,28(sp)
    624c:	03e00008 	jr	ra
    6250:	27bd0020 	addiu	sp,sp,32

00006254 <OSStart>:
    6254:	93827b30 	lbu	v0,31536(gp)
    6258:	10400003 	beqz	v0,6268 <OSStart+0x14>
    625c:	93827b64 	lbu	v0,31588(gp)
    6260:	03e00008 	jr	ra
    6264:	00000000 	nop
    6268:	3c030000 	lui	v1,0x0
    626c:	24637958 	addiu	v1,v1,31064
    6270:	00431021 	addu	v0,v0,v1
    6274:	90420000 	lbu	v0,0(v0)
    6278:	27847b68 	addiu	a0,gp,31592
    627c:	00822021 	addu	a0,a0,v0
    6280:	90840000 	lbu	a0,0(a0)
    6284:	000210c0 	sll	v0,v0,0x3
    6288:	00831821 	addu	v1,a0,v1
    628c:	90630000 	lbu	v1,0(v1)
    6290:	00431021 	addu	v0,v0,v1
    6294:	304200ff 	andi	v0,v0,0xff
    6298:	3c030001 	lui	v1,0x1
    629c:	00022080 	sll	a0,v0,0x2
    62a0:	24639a70 	addiu	v1,v1,-26000
    62a4:	00831821 	addu	v1,a0,v1
    62a8:	8c630000 	lw	v1,0(v1)
    62ac:	a3827b3a 	sb	v0,31546(gp)
    62b0:	a3827b3b 	sb	v0,31547(gp)
    62b4:	af837b5c 	sw	v1,31580(gp)
    62b8:	08001ccf 	j	733c <OSStartHighRdy>
    62bc:	af837b78 	sw	v1,31608(gp)

000062c0 <OSStatInit>:
    62c0:	27bdffe0 	addiu	sp,sp,-32
    62c4:	24040002 	li	a0,2
    62c8:	afbf001c 	sw	ra,28(sp)
    62cc:	afa00010 	sw	zero,16(sp)
    62d0:	0c0013e1 	jal	4f84 <OSTimeDly>
    62d4:	00000000 	nop
    62d8:	0c001d3c 	jal	74f0 <OS_CPU_SR_Save>
    62dc:	00000000 	nop
    62e0:	afa20010 	sw	v0,16(sp)
    62e4:	af807b34 	sw	zero,31540(gp)
    62e8:	8fa40010 	lw	a0,16(sp)
    62ec:	0c001d43 	jal	750c <OS_CPU_SR_Restore>
    62f0:	00000000 	nop
    62f4:	0c0013e1 	jal	4f84 <OSTimeDly>
    62f8:	2404000a 	li	a0,10
    62fc:	0c001d3c 	jal	74f0 <OS_CPU_SR_Save>
    6300:	00000000 	nop
    6304:	afa20010 	sw	v0,16(sp)
    6308:	8f827b34 	lw	v0,31540(gp)
    630c:	8fa40010 	lw	a0,16(sp)
    6310:	af827b4c 	sw	v0,31564(gp)
    6314:	24020001 	li	v0,1
    6318:	0c001d43 	jal	750c <OS_CPU_SR_Restore>
    631c:	a3827b8c 	sb	v0,31628(gp)
    6320:	8fbf001c 	lw	ra,28(sp)
    6324:	03e00008 	jr	ra
    6328:	27bd0020 	addiu	sp,sp,32

0000632c <OSTimeTick>:
    632c:	27bdffd0 	addiu	sp,sp,-48
    6330:	afbf002c 	sw	ra,44(sp)
    6334:	afb40028 	sw	s4,40(sp)
    6338:	afb30024 	sw	s3,36(sp)
    633c:	afb20020 	sw	s2,32(sp)
    6340:	afb1001c 	sw	s1,28(sp)
    6344:	afb00018 	sw	s0,24(sp)
    6348:	afa00010 	sw	zero,16(sp)
    634c:	0c001cb9 	jal	72e4 <OSTimeTickHook>
    6350:	00000000 	nop
    6354:	0c001d3c 	jal	74f0 <OS_CPU_SR_Save>
    6358:	00000000 	nop
    635c:	afa20010 	sw	v0,16(sp)
    6360:	8f827b80 	lw	v0,31616(gp)
    6364:	24420001 	addiu	v0,v0,1
    6368:	af827b80 	sw	v0,31616(gp)
    636c:	8fa40010 	lw	a0,16(sp)
    6370:	0c001d43 	jal	750c <OS_CPU_SR_Restore>
    6374:	00000000 	nop
    6378:	93827b30 	lbu	v0,31536(gp)
    637c:	24030001 	li	v1,1
    6380:	10430009 	beq	v0,v1,63a8 <OSTimeTick+0x7c>
    6384:	93837b40 	lbu	v1,31552(gp)
    6388:	8fbf002c 	lw	ra,44(sp)
    638c:	8fb40028 	lw	s4,40(sp)
    6390:	8fb30024 	lw	s3,36(sp)
    6394:	8fb20020 	lw	s2,32(sp)
    6398:	8fb1001c 	lw	s1,28(sp)
    639c:	8fb00018 	lw	s0,24(sp)
    63a0:	03e00008 	jr	ra
    63a4:	27bd0030 	addiu	sp,sp,48
    63a8:	1062fff8 	beq	v1,v0,638c <OSTimeTick+0x60>
    63ac:	8fbf002c 	lw	ra,44(sp)
    63b0:	10600004 	beqz	v1,63c4 <OSTimeTick+0x98>
    63b4:	24040002 	li	a0,2
    63b8:	1464002f 	bne	v1,a0,6478 <OSTimeTick+0x14c>
    63bc:	00000000 	nop
    63c0:	a3827b40 	sb	v0,31552(gp)
    63c4:	8f907b3c 	lw	s0,31548(gp)
    63c8:	2402003f 	li	v0,63
    63cc:	92030036 	lbu	v1,54(s0)
    63d0:	1062ffed 	beq	v1,v0,6388 <OSTimeTick+0x5c>
    63d4:	27947b68 	addiu	s4,gp,31592
    63d8:	2413ffc8 	li	s3,-56
    63dc:	24120001 	li	s2,1
    63e0:	10000017 	b	6440 <OSTimeTick+0x114>
    63e4:	2411003f 	li	s1,63
    63e8:	00531024 	and	v0,v0,s3
    63ec:	a2020034 	sb	v0,52(s0)
    63f0:	a2120035 	sb	s2,53(s0)
    63f4:	30420008 	andi	v0,v0,0x8
    63f8:	1440000a 	bnez	v0,6424 <OSTimeTick+0xf8>
    63fc:	93867b64 	lbu	a2,31588(gp)
    6400:	92020038 	lbu	v0,56(s0)
    6404:	02821021 	addu	v0,s4,v0
    6408:	90430000 	lbu	v1,0(v0)
    640c:	9204003a 	lbu	a0,58(s0)
    6410:	92050039 	lbu	a1,57(s0)
    6414:	00862025 	or	a0,a0,a2
    6418:	00651825 	or	v1,v1,a1
    641c:	a3847b64 	sb	a0,31588(gp)
    6420:	a0430000 	sb	v1,0(v0)
    6424:	8e100014 	lw	s0,20(s0)
    6428:	8fa40010 	lw	a0,16(sp)
    642c:	0c001d43 	jal	750c <OS_CPU_SR_Restore>
    6430:	00000000 	nop
    6434:	92020036 	lbu	v0,54(s0)
    6438:	1051ffd4 	beq	v0,s1,638c <OSTimeTick+0x60>
    643c:	8fbf002c 	lw	ra,44(sp)
    6440:	0c001d3c 	jal	74f0 <OS_CPU_SR_Save>
    6444:	00000000 	nop
    6448:	8e030030 	lw	v1,48(s0)
    644c:	afa20010 	sw	v0,16(sp)
    6450:	1060fff4 	beqz	v1,6424 <OSTimeTick+0xf8>
    6454:	2462ffff 	addiu	v0,v1,-1
    6458:	1440fff2 	bnez	v0,6424 <OSTimeTick+0xf8>
    645c:	ae020030 	sw	v0,48(s0)
    6460:	92020034 	lbu	v0,52(s0)
    6464:	30430037 	andi	v1,v0,0x37
    6468:	1460ffdf 	bnez	v1,63e8 <OSTimeTick+0xbc>
    646c:	00000000 	nop
    6470:	1000ffe0 	b	63f4 <OSTimeTick+0xc8>
    6474:	a2000035 	sb	zero,53(s0)
    6478:	1000ffd2 	b	63c4 <OSTimeTick+0x98>
    647c:	a3807b40 	sb	zero,31552(gp)

00006480 <OSVersion>:
    6480:	03e00008 	jr	ra
    6484:	24020123 	li	v0,291

00006488 <OS_Dummy>:
    6488:	03e00008 	jr	ra
    648c:	00000000 	nop

00006490 <OS_EventTaskRdy>:
    6490:	9082000a 	lbu	v0,10(a0)
    6494:	3c030000 	lui	v1,0x0
    6498:	24637958 	addiu	v1,v1,31064
    649c:	00431021 	addu	v0,v0,v1
    64a0:	90490000 	lbu	t1,0(v0)
    64a4:	30c600ff 	andi	a2,a2,0xff
    64a8:	00891021 	addu	v0,a0,t1
    64ac:	9048000b 	lbu	t0,11(v0)
    64b0:	000910c0 	sll	v0,t1,0x3
    64b4:	01031821 	addu	v1,t0,v1
    64b8:	90630000 	lbu	v1,0(v1)
    64bc:	00063027 	nor	a2,zero,a2
    64c0:	00431021 	addu	v0,v0,v1
    64c4:	304200ff 	andi	v0,v0,0xff
    64c8:	3c030001 	lui	v1,0x1
    64cc:	00024080 	sll	t0,v0,0x2
    64d0:	24639a70 	addiu	v1,v1,-26000
    64d4:	01031821 	addu	v1,t0,v1
    64d8:	8c680000 	lw	t0,0(v1)
    64dc:	91030034 	lbu	v1,52(t0)
    64e0:	ad000030 	sw	zero,48(t0)
    64e4:	00c33024 	and	a2,a2,v1
    64e8:	30c30008 	andi	v1,a2,0x8
    64ec:	ad050024 	sw	a1,36(t0)
    64f0:	a1060034 	sb	a2,52(t0)
    64f4:	10600024 	beqz	v1,6588 <OS_EventTaskRdy+0xf8>
    64f8:	a1070035 	sb	a3,53(t0)
    64fc:	91050038 	lbu	a1,56(t0)
    6500:	91030039 	lbu	v1,57(t0)
    6504:	00852821 	addu	a1,a0,a1
    6508:	90a6000b 	lbu	a2,11(a1)
    650c:	00031827 	nor	v1,zero,v1
    6510:	00661824 	and	v1,v1,a2
    6514:	1060002d 	beqz	v1,65cc <OS_EventTaskRdy+0x13c>
    6518:	a0a3000b 	sb	v1,11(a1)
    651c:	8d060020 	lw	a2,32(t0)
    6520:	10c00017 	beqz	a2,6580 <OS_EventTaskRdy+0xf0>
    6524:	00000000 	nop
    6528:	8cc50000 	lw	a1,0(a2)
    652c:	910a0038 	lbu	t2,56(t0)
    6530:	910b003a 	lbu	t3,58(t0)
    6534:	10a00010 	beqz	a1,6578 <OS_EventTaskRdy+0xe8>
    6538:	91090039 	lbu	t1,57(t0)
    653c:	00094827 	nor	t1,zero,t1
    6540:	312900ff 	andi	t1,t1,0xff
    6544:	000b5827 	nor	t3,zero,t3
    6548:	00aa3821 	addu	a3,a1,t2
    654c:	90e3000b 	lbu	v1,11(a3)
    6550:	24c60004 	addiu	a2,a2,4
    6554:	01231824 	and	v1,t1,v1
    6558:	14600004 	bnez	v1,656c <OS_EventTaskRdy+0xdc>
    655c:	a0e3000b 	sb	v1,11(a3)
    6560:	90a3000a 	lbu	v1,10(a1)
    6564:	01631824 	and	v1,t3,v1
    6568:	a0a3000a 	sb	v1,10(a1)
    656c:	8cc50000 	lw	a1,0(a2)
    6570:	14a0fff5 	bnez	a1,6548 <OS_EventTaskRdy+0xb8>
    6574:	00000000 	nop
    6578:	03e00008 	jr	ra
    657c:	ad04001c 	sw	a0,28(t0)
    6580:	03e00008 	jr	ra
    6584:	00000000 	nop
    6588:	27837b68 	addiu	v1,gp,31592
    658c:	00694821 	addu	t1,v1,t1
    6590:	91250000 	lbu	a1,0(t1)
    6594:	91030039 	lbu	v1,57(t0)
    6598:	93877b64 	lbu	a3,31588(gp)
    659c:	00652825 	or	a1,v1,a1
    65a0:	9106003a 	lbu	a2,58(t0)
    65a4:	a1250000 	sb	a1,0(t1)
    65a8:	91050038 	lbu	a1,56(t0)
    65ac:	00c73025 	or	a2,a2,a3
    65b0:	00852821 	addu	a1,a0,a1
    65b4:	a3867b64 	sb	a2,31588(gp)
    65b8:	90a6000b 	lbu	a2,11(a1)
    65bc:	00031827 	nor	v1,zero,v1
    65c0:	00661824 	and	v1,v1,a2
    65c4:	1460ffd5 	bnez	v1,651c <OS_EventTaskRdy+0x8c>
    65c8:	a0a3000b 	sb	v1,11(a1)
    65cc:	9103003a 	lbu	v1,58(t0)
    65d0:	9085000a 	lbu	a1,10(a0)
    65d4:	00031827 	nor	v1,zero,v1
    65d8:	00651824 	and	v1,v1,a1
    65dc:	1000ffcf 	b	651c <OS_EventTaskRdy+0x8c>
    65e0:	a083000a 	sb	v1,10(a0)

000065e4 <OS_EventTaskWait>:
    65e4:	8f827b78 	lw	v0,31608(gp)
    65e8:	90430038 	lbu	v1,56(v0)
    65ec:	ac44001c 	sw	a0,28(v0)
    65f0:	00831821 	addu	v1,a0,v1
    65f4:	9065000b 	lbu	a1,11(v1)
    65f8:	90460039 	lbu	a2,57(v0)
    65fc:	00a62825 	or	a1,a1,a2
    6600:	a065000b 	sb	a1,11(v1)
    6604:	9083000a 	lbu	v1,10(a0)
    6608:	9045003a 	lbu	a1,58(v0)
    660c:	00651825 	or	v1,v1,a1
    6610:	a083000a 	sb	v1,10(a0)
    6614:	90450038 	lbu	a1,56(v0)
    6618:	27847b68 	addiu	a0,gp,31592
    661c:	00852021 	addu	a0,a0,a1
    6620:	90430039 	lbu	v1,57(v0)
    6624:	90850000 	lbu	a1,0(a0)
    6628:	00031827 	nor	v1,zero,v1
    662c:	00651824 	and	v1,v1,a1
    6630:	14600006 	bnez	v1,664c <OS_EventTaskWait+0x68>
    6634:	a0830000 	sb	v1,0(a0)
    6638:	9042003a 	lbu	v0,58(v0)
    663c:	93837b64 	lbu	v1,31588(gp)
    6640:	00021027 	nor	v0,zero,v0
    6644:	00431024 	and	v0,v0,v1
    6648:	a3827b64 	sb	v0,31588(gp)
    664c:	03e00008 	jr	ra
    6650:	00000000 	nop

00006654 <OS_EventTaskWaitMulti>:
    6654:	8f867b78 	lw	a2,31608(gp)
    6658:	acc0001c 	sw	zero,28(a2)
    665c:	acc40020 	sw	a0,32(a2)
    6660:	8c820000 	lw	v0,0(a0)
    6664:	1040000f 	beqz	v0,66a4 <OS_EventTaskWaitMulti+0x50>
    6668:	00000000 	nop
    666c:	90c30038 	lbu	v1,56(a2)
    6670:	90c70039 	lbu	a3,57(a2)
    6674:	00431821 	addu	v1,v0,v1
    6678:	9065000b 	lbu	a1,11(v1)
    667c:	24840004 	addiu	a0,a0,4
    6680:	00a72825 	or	a1,a1,a3
    6684:	a065000b 	sb	a1,11(v1)
    6688:	9043000a 	lbu	v1,10(v0)
    668c:	90c5003a 	lbu	a1,58(a2)
    6690:	00651825 	or	v1,v1,a1
    6694:	a043000a 	sb	v1,10(v0)
    6698:	8c820000 	lw	v0,0(a0)
    669c:	1440fff3 	bnez	v0,666c <OS_EventTaskWaitMulti+0x18>
    66a0:	00000000 	nop
    66a4:	90c30038 	lbu	v1,56(a2)
    66a8:	27827b68 	addiu	v0,gp,31592
    66ac:	00431821 	addu	v1,v0,v1
    66b0:	90c20039 	lbu	v0,57(a2)
    66b4:	90640000 	lbu	a0,0(v1)
    66b8:	00021027 	nor	v0,zero,v0
    66bc:	00441024 	and	v0,v0,a0
    66c0:	14400007 	bnez	v0,66e0 <OS_EventTaskWaitMulti+0x8c>
    66c4:	a0620000 	sb	v0,0(v1)
    66c8:	90c2003a 	lbu	v0,58(a2)
    66cc:	93837b64 	lbu	v1,31588(gp)
    66d0:	00021027 	nor	v0,zero,v0
    66d4:	00431024 	and	v0,v0,v1
    66d8:	03e00008 	jr	ra
    66dc:	a3827b64 	sb	v0,31588(gp)
    66e0:	03e00008 	jr	ra
    66e4:	00000000 	nop

000066e8 <OS_EventTaskRemove>:
    66e8:	90830038 	lbu	v1,56(a0)
    66ec:	90820039 	lbu	v0,57(a0)
    66f0:	00a31821 	addu	v1,a1,v1
    66f4:	9066000b 	lbu	a2,11(v1)
    66f8:	00021027 	nor	v0,zero,v0
    66fc:	00461024 	and	v0,v0,a2
    6700:	14400006 	bnez	v0,671c <OS_EventTaskRemove+0x34>
    6704:	a062000b 	sb	v0,11(v1)
    6708:	9082003a 	lbu	v0,58(a0)
    670c:	90a3000a 	lbu	v1,10(a1)
    6710:	00021027 	nor	v0,zero,v0
    6714:	00431024 	and	v0,v0,v1
    6718:	a0a2000a 	sb	v0,10(a1)
    671c:	03e00008 	jr	ra
    6720:	00000000 	nop

00006724 <OS_EventTaskRemoveMulti>:
    6724:	8ca30000 	lw	v1,0(a1)
    6728:	90870038 	lbu	a3,56(a0)
    672c:	9088003a 	lbu	t0,58(a0)
    6730:	10600010 	beqz	v1,6774 <OS_EventTaskRemoveMulti+0x50>
    6734:	90860039 	lbu	a2,57(a0)
    6738:	00063027 	nor	a2,zero,a2
    673c:	30c600ff 	andi	a2,a2,0xff
    6740:	00084027 	nor	t0,zero,t0
    6744:	00672021 	addu	a0,v1,a3
    6748:	9082000b 	lbu	v0,11(a0)
    674c:	24a50004 	addiu	a1,a1,4
    6750:	00c21024 	and	v0,a2,v0
    6754:	14400004 	bnez	v0,6768 <OS_EventTaskRemoveMulti+0x44>
    6758:	a082000b 	sb	v0,11(a0)
    675c:	9062000a 	lbu	v0,10(v1)
    6760:	01021024 	and	v0,t0,v0
    6764:	a062000a 	sb	v0,10(v1)
    6768:	8ca30000 	lw	v1,0(a1)
    676c:	1460fff5 	bnez	v1,6744 <OS_EventTaskRemoveMulti+0x20>
    6770:	00000000 	nop
    6774:	03e00008 	jr	ra
    6778:	00000000 	nop

0000677c <OS_EventWaitListInit>:
    677c:	a080000a 	sb	zero,10(a0)
    6780:	2482000b 	addiu	v0,a0,11
    6784:	24840013 	addiu	a0,a0,19
    6788:	a0400000 	sb	zero,0(v0)
    678c:	24420001 	addiu	v0,v0,1
    6790:	1444fffd 	bne	v0,a0,6788 <OS_EventWaitListInit+0xc>
    6794:	00000000 	nop
    6798:	03e00008 	jr	ra
    679c:	00000000 	nop

000067a0 <OS_MemClr>:
    67a0:	30a5ffff 	andi	a1,a1,0xffff
    67a4:	10a00008 	beqz	a1,67c8 <OS_MemClr+0x28>
    67a8:	00000000 	nop
    67ac:	24a2ffff 	addiu	v0,a1,-1
    67b0:	3042ffff 	andi	v0,v0,0xffff
    67b4:	24420001 	addiu	v0,v0,1
    67b8:	00821021 	addu	v0,a0,v0
    67bc:	24840001 	addiu	a0,a0,1
    67c0:	1482fffe 	bne	a0,v0,67bc <OS_MemClr+0x1c>
    67c4:	a080ffff 	sb	zero,-1(a0)
    67c8:	03e00008 	jr	ra
    67cc:	00000000 	nop

000067d0 <OS_MemCopy>:
    67d0:	30c6ffff 	andi	a2,a2,0xffff
    67d4:	10c0000a 	beqz	a2,6800 <OS_MemCopy+0x30>
    67d8:	00000000 	nop
    67dc:	24c3ffff 	addiu	v1,a2,-1
    67e0:	3063ffff 	andi	v1,v1,0xffff
    67e4:	24630001 	addiu	v1,v1,1
    67e8:	00831821 	addu	v1,a0,v1
    67ec:	24a50001 	addiu	a1,a1,1
    67f0:	90a2ffff 	lbu	v0,-1(a1)
    67f4:	24840001 	addiu	a0,a0,1
    67f8:	1483fffc 	bne	a0,v1,67ec <OS_MemCopy+0x1c>
    67fc:	a082ffff 	sb	v0,-1(a0)
    6800:	03e00008 	jr	ra
    6804:	00000000 	nop

00006808 <OS_Sched>:
    6808:	27bdffe0 	addiu	sp,sp,-32
    680c:	afbf001c 	sw	ra,28(sp)
    6810:	0c001d3c 	jal	74f0 <OS_CPU_SR_Save>
    6814:	afa00010 	sw	zero,16(sp)
    6818:	93837b74 	lbu	v1,31604(gp)
    681c:	afa20010 	sw	v0,16(sp)
    6820:	1460001f 	bnez	v1,68a0 <OS_Sched+0x98>
    6824:	93827b28 	lbu	v0,31528(gp)
    6828:	1440001d 	bnez	v0,68a0 <OS_Sched+0x98>
    682c:	93827b64 	lbu	v0,31588(gp)
    6830:	3c030000 	lui	v1,0x0
    6834:	24637958 	addiu	v1,v1,31064
    6838:	00431021 	addu	v0,v0,v1
    683c:	90420000 	lbu	v0,0(v0)
    6840:	27847b68 	addiu	a0,gp,31592
    6844:	00822021 	addu	a0,a0,v0
    6848:	90840000 	lbu	a0,0(a0)
    684c:	000210c0 	sll	v0,v0,0x3
    6850:	00831821 	addu	v1,a0,v1
    6854:	90630000 	lbu	v1,0(v1)
    6858:	00431021 	addu	v0,v0,v1
    685c:	304200ff 	andi	v0,v0,0xff
    6860:	3c030001 	lui	v1,0x1
    6864:	00022080 	sll	a0,v0,0x2
    6868:	24639a70 	addiu	v1,v1,-26000
    686c:	00831821 	addu	v1,a0,v1
    6870:	8c630000 	lw	v1,0(v1)
    6874:	93847b3b 	lbu	a0,31547(gp)
    6878:	a3827b3a 	sb	v0,31546(gp)
    687c:	10820008 	beq	a0,v0,68a0 <OS_Sched+0x98>
    6880:	af837b5c 	sw	v1,31580(gp)
    6884:	8c64003c 	lw	a0,60(v1)
    6888:	8f827b44 	lw	v0,31556(gp)
    688c:	24840001 	addiu	a0,a0,1
    6890:	24420001 	addiu	v0,v0,1
    6894:	ac64003c 	sw	a0,60(v1)
    6898:	af827b44 	sw	v0,31556(gp)
    689c:	0000000c 	syscall
    68a0:	0c001d43 	jal	750c <OS_CPU_SR_Restore>
    68a4:	8fa40010 	lw	a0,16(sp)
    68a8:	8fbf001c 	lw	ra,28(sp)
    68ac:	03e00008 	jr	ra
    68b0:	27bd0020 	addiu	sp,sp,32

000068b4 <OSEventPendMulti>:
    68b4:	27bdffc0 	addiu	sp,sp,-64
    68b8:	afb10030 	sw	s1,48(sp)
    68bc:	afb0002c 	sw	s0,44(sp)
    68c0:	afbf003c 	sw	ra,60(sp)
    68c4:	afb30038 	sw	s3,56(sp)
    68c8:	afb20034 	sw	s2,52(sp)
    68cc:	aca00000 	sw	zero,0(a1)
    68d0:	8c820000 	lw	v0,0(a0)
    68d4:	00808025 	move	s0,a0
    68d8:	8fb10050 	lw	s1,80(sp)
    68dc:	afa00010 	sw	zero,16(sp)
    68e0:	10400015 	beqz	v0,6938 <OSEventPendMulti+0x84>
    68e4:	00801825 	move	v1,a0
    68e8:	10000004 	b	68fc <OSEventPendMulti+0x48>
    68ec:	24040002 	li	a0,2
    68f0:	8c620000 	lw	v0,0(v1)
    68f4:	10400010 	beqz	v0,6938 <OSEventPendMulti+0x84>
    68f8:	00000000 	nop
    68fc:	90420000 	lbu	v0,0(v0)
    6900:	2442ffff 	addiu	v0,v0,-1
    6904:	0082102b 	sltu	v0,a0,v0
    6908:	1040fff9 	beqz	v0,68f0 <OSEventPendMulti+0x3c>
    690c:	24630004 	addiu	v1,v1,4
    6910:	24020001 	li	v0,1
    6914:	a2220000 	sb	v0,0(s1)
    6918:	00001025 	move	v0,zero
    691c:	8fbf003c 	lw	ra,60(sp)
    6920:	8fb30038 	lw	s3,56(sp)
    6924:	8fb20034 	lw	s2,52(sp)
    6928:	8fb10030 	lw	s1,48(sp)
    692c:	8fb0002c 	lw	s0,44(sp)
    6930:	03e00008 	jr	ra
    6934:	27bd0040 	addiu	sp,sp,64
    6938:	93827b74 	lbu	v0,31604(gp)
    693c:	1440000c 	bnez	v0,6970 <OSEventPendMulti+0xbc>
    6940:	93827b28 	lbu	v0,31528(gp)
    6944:	10400014 	beqz	v0,6998 <OSEventPendMulti+0xe4>
    6948:	2402000d 	li	v0,13
    694c:	a2220000 	sb	v0,0(s1)
    6950:	8fbf003c 	lw	ra,60(sp)
    6954:	8fb30038 	lw	s3,56(sp)
    6958:	8fb20034 	lw	s2,52(sp)
    695c:	8fb10030 	lw	s1,48(sp)
    6960:	8fb0002c 	lw	s0,44(sp)
    6964:	00001025 	move	v0,zero
    6968:	03e00008 	jr	ra
    696c:	27bd0040 	addiu	sp,sp,64
    6970:	24020002 	li	v0,2
    6974:	a2220000 	sb	v0,0(s1)
    6978:	8fbf003c 	lw	ra,60(sp)
    697c:	8fb30038 	lw	s3,56(sp)
    6980:	8fb20034 	lw	s2,52(sp)
    6984:	8fb10030 	lw	s1,48(sp)
    6988:	8fb0002c 	lw	s0,44(sp)
    698c:	00001025 	move	v0,zero
    6990:	03e00008 	jr	ra
    6994:	27bd0040 	addiu	sp,sp,64
    6998:	afa70020 	sw	a3,32(sp)
    699c:	afa6001c 	sw	a2,28(sp)
    69a0:	0c001d3c 	jal	74f0 <OS_CPU_SR_Save>
    69a4:	afa50018 	sw	a1,24(sp)
    69a8:	8e030000 	lw	v1,0(s0)
    69ac:	afa20010 	sw	v0,16(sp)
    69b0:	8fa50018 	lw	a1,24(sp)
    69b4:	8fa6001c 	lw	a2,28(sp)
    69b8:	106000a4 	beqz	v1,6c4c <OSEventPendMulti+0x398>
    69bc:	8fa70020 	lw	a3,32(sp)
    69c0:	02002025 	move	a0,s0
    69c4:	00005825 	move	t3,zero
    69c8:	00009025 	move	s2,zero
    69cc:	00006025 	move	t4,zero
    69d0:	24080002 	li	t0,2
    69d4:	240a0003 	li	t2,3
    69d8:	90620000 	lbu	v0,0(v1)
    69dc:	10480013 	beq	v0,t0,6a2c <OSEventPendMulti+0x178>
    69e0:	00000000 	nop
    69e4:	104a007a 	beq	v0,t2,6bd0 <OSEventPendMulti+0x31c>
    69e8:	24130001 	li	s3,1
    69ec:	1053006d 	beq	v0,s3,6ba4 <OSEventPendMulti+0x2f0>
    69f0:	00000000 	nop
    69f4:	8fa40010 	lw	a0,16(sp)
    69f8:	0c001d43 	jal	750c <OS_CPU_SR_Restore>
    69fc:	afa50018 	sw	a1,24(sp)
    6a00:	8fa50018 	lw	a1,24(sp)
    6a04:	02401025 	move	v0,s2
    6a08:	aca00000 	sw	zero,0(a1)
    6a0c:	a2330000 	sb	s3,0(s1)
    6a10:	8fbf003c 	lw	ra,60(sp)
    6a14:	8fb30038 	lw	s3,56(sp)
    6a18:	8fb20034 	lw	s2,52(sp)
    6a1c:	8fb10030 	lw	s1,48(sp)
    6a20:	8fb0002c 	lw	s0,44(sp)
    6a24:	03e00008 	jr	ra
    6a28:	27bd0040 	addiu	sp,sp,64
    6a2c:	8c690004 	lw	t1,4(v1)
    6a30:	95220016 	lhu	v0,22(t1)
    6a34:	10400072 	beqz	v0,6c00 <OSEventPendMulti+0x34c>
    6a38:	24cd0004 	addiu	t5,a2,4
    6a3c:	8d2c0010 	lw	t4,16(t1)
    6a40:	258e0004 	addiu	t6,t4,4
    6a44:	ad2e0010 	sw	t6,16(t1)
    6a48:	8d8c0000 	lw	t4,0(t4)
    6a4c:	accc0000 	sw	t4,0(a2)
    6a50:	8d2c0010 	lw	t4,16(t1)
    6a54:	8d260008 	lw	a2,8(t1)
    6a58:	1186006d 	beq	t4,a2,6c10 <OSEventPendMulti+0x35c>
    6a5c:	00000000 	nop
    6a60:	2446ffff 	addiu	a2,v0,-1
    6a64:	26420001 	addiu	v0,s2,1
    6a68:	a5260016 	sh	a2,22(t1)
    6a6c:	3052ffff 	andi	s2,v0,0xffff
    6a70:	aca30000 	sw	v1,0(a1)
    6a74:	01a03025 	move	a2,t5
    6a78:	24a50004 	addiu	a1,a1,4
    6a7c:	240c0001 	li	t4,1
    6a80:	24840004 	addiu	a0,a0,4
    6a84:	8c830000 	lw	v1,0(a0)
    6a88:	1460ffd3 	bnez	v1,69d8 <OSEventPendMulti+0x124>
    6a8c:	00000000 	nop
    6a90:	15800081 	bnez	t4,6c98 <OSEventPendMulti+0x3e4>
    6a94:	00000000 	nop
    6a98:	8f827b78 	lw	v0,31608(gp)
    6a9c:	2408ff80 	li	t0,-128
    6aa0:	90430034 	lbu	v1,52(v0)
    6aa4:	ac470030 	sw	a3,48(v0)
    6aa8:	00681825 	or	v1,v1,t0
    6aac:	01635825 	or	t3,t3,v1
    6ab0:	a04b0034 	sb	t3,52(v0)
    6ab4:	a0400035 	sb	zero,53(v0)
    6ab8:	02002025 	move	a0,s0
    6abc:	afa6001c 	sw	a2,28(sp)
    6ac0:	0c001995 	jal	6654 <OS_EventTaskWaitMulti>
    6ac4:	afa50018 	sw	a1,24(sp)
    6ac8:	8fa40010 	lw	a0,16(sp)
    6acc:	0c001d43 	jal	750c <OS_CPU_SR_Restore>
    6ad0:	00000000 	nop
    6ad4:	0c001a02 	jal	6808 <OS_Sched>
    6ad8:	00000000 	nop
    6adc:	0c001d3c 	jal	74f0 <OS_CPU_SR_Save>
    6ae0:	00000000 	nop
    6ae4:	8f877b78 	lw	a3,31608(gp)
    6ae8:	afa20010 	sw	v0,16(sp)
    6aec:	90e20035 	lbu	v0,53(a3)
    6af0:	8fa50018 	lw	a1,24(sp)
    6af4:	1040004b 	beqz	v0,6c24 <OSEventPendMulti+0x370>
    6af8:	8fa6001c 	lw	a2,28(sp)
    6afc:	24030002 	li	v1,2
    6b00:	10430048 	beq	v0,v1,6c24 <OSEventPendMulti+0x370>
    6b04:	00000000 	nop
    6b08:	8e030000 	lw	v1,0(s0)
    6b0c:	90e90038 	lbu	t1,56(a3)
    6b10:	90ea003a 	lbu	t2,58(a3)
    6b14:	1060008b 	beqz	v1,6d44 <OSEventPendMulti+0x490>
    6b18:	90e80039 	lbu	t0,57(a3)
    6b1c:	00084027 	nor	t0,zero,t0
    6b20:	310800ff 	andi	t0,t0,0xff
    6b24:	000a5027 	nor	t2,zero,t2
    6b28:	00692021 	addu	a0,v1,t1
    6b2c:	9082000b 	lbu	v0,11(a0)
    6b30:	26100004 	addiu	s0,s0,4
    6b34:	01021024 	and	v0,t0,v0
    6b38:	14400004 	bnez	v0,6b4c <OSEventPendMulti+0x298>
    6b3c:	a082000b 	sb	v0,11(a0)
    6b40:	9062000a 	lbu	v0,10(v1)
    6b44:	01421024 	and	v0,t2,v0
    6b48:	a062000a 	sb	v0,10(v1)
    6b4c:	8e030000 	lw	v1,0(s0)
    6b50:	1460fff5 	bnez	v1,6b28 <OSEventPendMulti+0x274>
    6b54:	00000000 	nop
    6b58:	90e20035 	lbu	v0,53(a3)
    6b5c:	10400042 	beqz	v0,6c68 <OSEventPendMulti+0x3b4>
    6b60:	00000000 	nop
    6b64:	24030002 	li	v1,2
    6b68:	1443003b 	bne	v0,v1,6c58 <OSEventPendMulti+0x3a4>
    6b6c:	00000000 	nop
    6b70:	2402000e 	li	v0,14
    6b74:	acc00000 	sw	zero,0(a2)
    6b78:	a2220000 	sb	v0,0(s1)
    6b7c:	8f827b78 	lw	v0,31608(gp)
    6b80:	8fa40010 	lw	a0,16(sp)
    6b84:	a0400034 	sb	zero,52(v0)
    6b88:	a0400035 	sb	zero,53(v0)
    6b8c:	ac40001c 	sw	zero,28(v0)
    6b90:	ac400020 	sw	zero,32(v0)
    6b94:	0c001d43 	jal	750c <OS_CPU_SR_Restore>
    6b98:	ac400024 	sw	zero,36(v0)
    6b9c:	1000ff5f 	b	691c <OSEventPendMulti+0x68>
    6ba0:	02401025 	move	v0,s2
    6ba4:	8c690004 	lw	t1,4(v1)
    6ba8:	1120001c 	beqz	t1,6c1c <OSEventPendMulti+0x368>
    6bac:	26420001 	addiu	v0,s2,1
    6bb0:	acc90000 	sw	t1,0(a2)
    6bb4:	3052ffff 	andi	s2,v0,0xffff
    6bb8:	ac600004 	sw	zero,4(v1)
    6bbc:	24c60004 	addiu	a2,a2,4
    6bc0:	aca30000 	sw	v1,0(a1)
    6bc4:	240c0001 	li	t4,1
    6bc8:	1000ffad 	b	6a80 <OSEventPendMulti+0x1cc>
    6bcc:	24a50004 	addiu	a1,a1,4
    6bd0:	94620008 	lhu	v0,8(v1)
    6bd4:	1040000c 	beqz	v0,6c08 <OSEventPendMulti+0x354>
    6bd8:	2449ffff 	addiu	t1,v0,-1
    6bdc:	24c60004 	addiu	a2,a2,4
    6be0:	26420001 	addiu	v0,s2,1
    6be4:	a4690008 	sh	t1,8(v1)
    6be8:	3052ffff 	andi	s2,v0,0xffff
    6bec:	aca30000 	sw	v1,0(a1)
    6bf0:	240c0001 	li	t4,1
    6bf4:	acc0fffc 	sw	zero,-4(a2)
    6bf8:	1000ffa1 	b	6a80 <OSEventPendMulti+0x1cc>
    6bfc:	24a50004 	addiu	a1,a1,4
    6c00:	1000ff9f 	b	6a80 <OSEventPendMulti+0x1cc>
    6c04:	356b0004 	ori	t3,t3,0x4
    6c08:	1000ff9d 	b	6a80 <OSEventPendMulti+0x1cc>
    6c0c:	356b0001 	ori	t3,t3,0x1
    6c10:	8d260004 	lw	a2,4(t1)
    6c14:	1000ff92 	b	6a60 <OSEventPendMulti+0x1ac>
    6c18:	ad260010 	sw	a2,16(t1)
    6c1c:	1000ff98 	b	6a80 <OSEventPendMulti+0x1cc>
    6c20:	356b0002 	ori	t3,t3,0x2
    6c24:	8ce3001c 	lw	v1,28(a3)
    6c28:	1060002e 	beqz	v1,6ce4 <OSEventPendMulti+0x430>
    6c2c:	26420001 	addiu	v0,s2,1
    6c30:	aca30000 	sw	v1,0(a1)
    6c34:	8f877b78 	lw	a3,31608(gp)
    6c38:	aca00004 	sw	zero,4(a1)
    6c3c:	3052ffff 	andi	s2,v0,0xffff
    6c40:	24a50004 	addiu	a1,a1,4
    6c44:	1000ffc5 	b	6b5c <OSEventPendMulti+0x2a8>
    6c48:	90e20035 	lbu	v0,53(a3)
    6c4c:	00009025 	move	s2,zero
    6c50:	1000ff91 	b	6a98 <OSEventPendMulti+0x1e4>
    6c54:	00005825 	move	t3,zero
    6c58:	2402000a 	li	v0,10
    6c5c:	acc00000 	sw	zero,0(a2)
    6c60:	1000ffc6 	b	6b7c <OSEventPendMulti+0x2c8>
    6c64:	a2220000 	sb	v0,0(s1)
    6c68:	90620000 	lbu	v0,0(v1)
    6c6c:	10400014 	beqz	v0,6cc0 <OSEventPendMulti+0x40c>
    6c70:	00000000 	nop
    6c74:	2c430003 	sltiu	v1,v0,3
    6c78:	1460000d 	bnez	v1,6cb0 <OSEventPendMulti+0x3fc>
    6c7c:	00000000 	nop
    6c80:	24030003 	li	v1,3
    6c84:	1443000e 	bne	v0,v1,6cc0 <OSEventPendMulti+0x40c>
    6c88:	00000000 	nop
    6c8c:	acc00000 	sw	zero,0(a2)
    6c90:	1000ffba 	b	6b7c <OSEventPendMulti+0x2c8>
    6c94:	a2200000 	sb	zero,0(s1)
    6c98:	8fa40010 	lw	a0,16(sp)
    6c9c:	0c001d43 	jal	750c <OS_CPU_SR_Restore>
    6ca0:	aca00000 	sw	zero,0(a1)
    6ca4:	a2200000 	sb	zero,0(s1)
    6ca8:	1000ff1c 	b	691c <OSEventPendMulti+0x68>
    6cac:	02401025 	move	v0,s2
    6cb0:	8ce20024 	lw	v0,36(a3)
    6cb4:	acc20000 	sw	v0,0(a2)
    6cb8:	1000ffb0 	b	6b7c <OSEventPendMulti+0x2c8>
    6cbc:	a2200000 	sb	zero,0(s1)
    6cc0:	8fa40010 	lw	a0,16(sp)
    6cc4:	0c001d43 	jal	750c <OS_CPU_SR_Restore>
    6cc8:	afa50018 	sw	a1,24(sp)
    6ccc:	8fa50018 	lw	a1,24(sp)
    6cd0:	24030001 	li	v1,1
    6cd4:	aca00000 	sw	zero,0(a1)
    6cd8:	02401025 	move	v0,s2
    6cdc:	1000ff0f 	b	691c <OSEventPendMulti+0x68>
    6ce0:	a2230000 	sb	v1,0(s1)
    6ce4:	24020001 	li	v0,1
    6ce8:	a0e20035 	sb	v0,53(a3)
    6cec:	8e020000 	lw	v0,0(s0)
    6cf0:	90eb0038 	lbu	t3,56(a3)
    6cf4:	90e9003a 	lbu	t1,58(a3)
    6cf8:	1040ffd7 	beqz	v0,6c58 <OSEventPendMulti+0x3a4>
    6cfc:	90e40039 	lbu	a0,57(a3)
    6d00:	00042027 	nor	a0,zero,a0
    6d04:	308400ff 	andi	a0,a0,0xff
    6d08:	00094827 	nor	t1,zero,t1
    6d0c:	004b5021 	addu	t2,v0,t3
    6d10:	9148000b 	lbu	t0,11(t2)
    6d14:	26100004 	addiu	s0,s0,4
    6d18:	00884024 	and	t0,a0,t0
    6d1c:	15000004 	bnez	t0,6d30 <OSEventPendMulti+0x47c>
    6d20:	a148000b 	sb	t0,11(t2)
    6d24:	9048000a 	lbu	t0,10(v0)
    6d28:	01284024 	and	t0,t1,t0
    6d2c:	a048000a 	sb	t0,10(v0)
    6d30:	8e020000 	lw	v0,0(s0)
    6d34:	1440fff5 	bnez	v0,6d0c <OSEventPendMulti+0x458>
    6d38:	00000000 	nop
    6d3c:	1000ff87 	b	6b5c <OSEventPendMulti+0x2a8>
    6d40:	90e20035 	lbu	v0,53(a3)
    6d44:	1000ff85 	b	6b5c <OSEventPendMulti+0x2a8>
    6d48:	00001825 	move	v1,zero

00006d4c <OSSchedUnlock>:
    6d4c:	93837b30 	lbu	v1,31536(gp)
    6d50:	27bdffe0 	addiu	sp,sp,-32
    6d54:	24020001 	li	v0,1
    6d58:	afbf001c 	sw	ra,28(sp)
    6d5c:	afa00010 	sw	zero,16(sp)
    6d60:	10620003 	beq	v1,v0,6d70 <OSSchedUnlock+0x24>
    6d64:	8fbf001c 	lw	ra,28(sp)
    6d68:	03e00008 	jr	ra
    6d6c:	27bd0020 	addiu	sp,sp,32
    6d70:	0c001d3c 	jal	74f0 <OS_CPU_SR_Save>
    6d74:	00000000 	nop
    6d78:	93837b28 	lbu	v1,31528(gp)
    6d7c:	afa20010 	sw	v0,16(sp)
    6d80:	1060000e 	beqz	v1,6dbc <OSSchedUnlock+0x70>
    6d84:	2463ffff 	addiu	v1,v1,-1
    6d88:	306300ff 	andi	v1,v1,0xff
    6d8c:	1460000b 	bnez	v1,6dbc <OSSchedUnlock+0x70>
    6d90:	a3837b28 	sb	v1,31528(gp)
    6d94:	93827b74 	lbu	v0,31604(gp)
    6d98:	8fa40010 	lw	a0,16(sp)
